ARM GAS  C:\Users\blue\AppData\Local\Temp\ccT83Jn3.s 			page 1


   1              		.cpu cortex-m7
   2              		.arch armv7e-m
   3              		.fpu fpv5-d16
   4              		.eabi_attribute 28, 1
   5              		.eabi_attribute 20, 1
   6              		.eabi_attribute 21, 1
   7              		.eabi_attribute 23, 3
   8              		.eabi_attribute 24, 1
   9              		.eabi_attribute 25, 1
  10              		.eabi_attribute 26, 1
  11              		.eabi_attribute 30, 1
  12              		.eabi_attribute 34, 1
  13              		.eabi_attribute 18, 4
  14              		.file	"can_comm.c"
  15              		.text
  16              	.Ltext0:
  17              		.cfi_sections	.debug_frame
  18              		.section	.text.CANCommResetRx,"ax",%progbits
  19              		.align	1
  20              		.syntax unified
  21              		.thumb
  22              		.thumb_func
  24              	CANCommResetRx:
  25              	.LVL0:
  26              	.LFB147:
  27              		.file 1 "modules/can_comm/can_comm.c"
   1:modules/can_comm/can_comm.c **** #include "can_comm.h"
   2:modules/can_comm/can_comm.c **** #include "memory.h"
   3:modules/can_comm/can_comm.c **** #include "stdlib.h"
   4:modules/can_comm/can_comm.c **** #include "crc8.h"
   5:modules/can_comm/can_comm.c **** #include "bsp_dwt.h"
   6:modules/can_comm/can_comm.c **** #include "bsp_log.h"
   7:modules/can_comm/can_comm.c **** 
   8:modules/can_comm/can_comm.c **** /**
   9:modules/can_comm/can_comm.c ****  * @brief ÈáçÁΩÆCAN commÁöÑÊé•Êî∂Áä∂ÊÄÅÂíåbuffer
  10:modules/can_comm/can_comm.c ****  *
  11:modules/can_comm/can_comm.c ****  * @param ins ÈúÄË¶ÅÈáçÁΩÆÁöÑÂÆû‰æã
  12:modules/can_comm/can_comm.c ****  */
  13:modules/can_comm/can_comm.c **** static void CANCommResetRx(CANCommInstance *ins)
  14:modules/can_comm/can_comm.c **** {
  28              		.loc 1 14 1 view -0
  29              		.cfi_startproc
  30              		@ args = 0, pretend = 0, frame = 0
  31              		@ frame_needed = 0, uses_anonymous_args = 0
  32              		.loc 1 14 1 is_stmt 0 view .LVU1
  33 0000 10B5     		push	{r4, lr}
  34              	.LCFI0:
  35              		.cfi_def_cfa_offset 8
  36              		.cfi_offset 4, -8
  37              		.cfi_offset 14, -4
  38 0002 0446     		mov	r4, r0
  15:modules/can_comm/can_comm.c ****     // ÂΩìÂâçÂ∑≤ÁªèÊî∂Âà∞ÁöÑbufferÊ∏ÖÈõ∂
  16:modules/can_comm/can_comm.c ****     memset(ins->raw_recvbuf, 0, ins->cur_recv_len);
  39              		.loc 1 16 5 is_stmt 1 view .LVU2
  40 0004 90F8C520 		ldrb	r2, [r0, #197]	@ zero_extendqisi2
  41 0008 0021     		movs	r1, #0
  42 000a 4830     		adds	r0, r0, #72
ARM GAS  C:\Users\blue\AppData\Local\Temp\ccT83Jn3.s 			page 2


  43              	.LVL1:
  44              		.loc 1 16 5 is_stmt 0 view .LVU3
  45 000c FFF7FEFF 		bl	memset
  46              	.LVL2:
  17:modules/can_comm/can_comm.c ****     ins->recv_state = 0;   // Êé•Êî∂Áä∂ÊÄÅÈáçÁΩÆ
  47              		.loc 1 17 5 is_stmt 1 view .LVU4
  48              		.loc 1 17 21 is_stmt 0 view .LVU5
  49 0010 0023     		movs	r3, #0
  50 0012 84F8C430 		strb	r3, [r4, #196]
  18:modules/can_comm/can_comm.c ****     ins->cur_recv_len = 0; // ÂΩìÂâçÂ∑≤ÁªèÊî∂Âà∞ÁöÑÈïøÂ∫¶ÈáçÁΩÆ
  51              		.loc 1 18 5 is_stmt 1 view .LVU6
  52              		.loc 1 18 23 is_stmt 0 view .LVU7
  53 0016 84F8C530 		strb	r3, [r4, #197]
  19:modules/can_comm/can_comm.c **** }
  54              		.loc 1 19 1 view .LVU8
  55 001a 10BD     		pop	{r4, pc}
  56              		.loc 1 19 1 view .LVU9
  57              		.cfi_endproc
  58              	.LFE147:
  60              		.section	.text.CANCommRxCallback,"ax",%progbits
  61              		.align	1
  62              		.global	CANCommRxCallback
  63              		.syntax unified
  64              		.thumb
  65              		.thumb_func
  67              	CANCommRxCallback:
  68              	.LVL3:
  69              	.LFB148:
  20:modules/can_comm/can_comm.c **** 
  21:modules/can_comm/can_comm.c **** /**
  22:modules/can_comm/can_comm.c ****  * @brief cancommÁöÑÊé•Êî∂ÂõûË∞ÉÂáΩÊï∞
  23:modules/can_comm/can_comm.c ****  *
  24:modules/can_comm/can_comm.c ****  * @param _instance
  25:modules/can_comm/can_comm.c ****  */
  26:modules/can_comm/can_comm.c **** void CANCommRxCallback(CANInstance *_instance)
  27:modules/can_comm/can_comm.c **** {
  70              		.loc 1 27 1 is_stmt 1 view -0
  71              		.cfi_startproc
  72              		@ args = 0, pretend = 0, frame = 0
  73              		@ frame_needed = 0, uses_anonymous_args = 0
  74              		.loc 1 27 1 is_stmt 0 view .LVU11
  75 0000 70B5     		push	{r4, r5, r6, lr}
  76              	.LCFI1:
  77              		.cfi_def_cfa_offset 16
  78              		.cfi_offset 4, -16
  79              		.cfi_offset 5, -12
  80              		.cfi_offset 6, -8
  81              		.cfi_offset 14, -4
  82 0002 0446     		mov	r4, r0
  28:modules/can_comm/can_comm.c ****     CANCommInstance *comm = (CANCommInstance *)_instance->id; // Ê≥®ÊÑèÂÜôÊ≥ï,Â∞Ücan instanceÁöÑidÂ
  83              		.loc 1 28 5 is_stmt 1 view .LVU12
  84              		.loc 1 28 22 is_stmt 0 view .LVU13
  85 0004 D0F84950 		ldr	r5, [r0, #73]	@ unaligned
  86              	.LVL4:
  29:modules/can_comm/can_comm.c **** 
  30:modules/can_comm/can_comm.c ****     /* ÂΩìÂâçÊé•Êî∂Áä∂ÊÄÅÂà§Êñ≠ */
  31:modules/can_comm/can_comm.c ****     if (_instance->rx_buff[0] == CAN_COMM_HEADER && comm->recv_state == 0) // ‰πãÂâçÂ∞öÊú™ÂºÄÂßãÊé•
ARM GAS  C:\Users\blue\AppData\Local\Temp\ccT83Jn3.s 			page 3


  87              		.loc 1 31 5 is_stmt 1 view .LVU14
  88              		.loc 1 31 27 is_stmt 0 view .LVU15
  89 0008 90F83830 		ldrb	r3, [r0, #56]	@ zero_extendqisi2
  90              		.loc 1 31 8 view .LVU16
  91 000c 732B     		cmp	r3, #115
  92 000e 1FD0     		beq	.L9
  93              	.L4:
  32:modules/can_comm/can_comm.c ****     {
  33:modules/can_comm/can_comm.c ****         if (_instance->rx_buff[1] == comm->recv_data_len) // Â¶ÇÊûúËøô‰∏ÄÂåÖÈáåÁöÑdatalen‰πüÁ≠â‰∫éÊ
  34:modules/can_comm/can_comm.c ****         {
  35:modules/can_comm/can_comm.c ****             comm->recv_state = 1; // ËÆæÁΩÆÊé•Êî∂Áä∂ÊÄÅ‰∏∫1,ËØ¥ÊòéÂ∑≤ÁªèÂºÄÂßãÊé•Êî∂
  36:modules/can_comm/can_comm.c ****         }
  37:modules/can_comm/can_comm.c ****         else
  38:modules/can_comm/can_comm.c ****             return; // Áõ¥Êé•Ë∑≥ËøáÂç≥ÂèØ
  39:modules/can_comm/can_comm.c ****     }
  40:modules/can_comm/can_comm.c **** 
  41:modules/can_comm/can_comm.c ****     if (comm->recv_state) // Â∑≤ÁªèÊî∂Âà∞ËøáÂ∏ßÂ§¥
  94              		.loc 1 41 5 is_stmt 1 view .LVU17
  95              		.loc 1 41 13 is_stmt 0 view .LVU18
  96 0010 95F8C430 		ldrb	r3, [r5, #196]	@ zero_extendqisi2
  97              		.loc 1 41 8 view .LVU19
  98 0014 DBB1     		cbz	r3, .L3
  42:modules/can_comm/can_comm.c ****     {
  43:modules/can_comm/can_comm.c ****         // Â¶ÇÊûúÂ∑≤ÁªèÊé•Êî∂Âà∞ÁöÑÈïøÂ∫¶Âä†‰∏äÂΩìÂâç‰∏ÄÂåÖÁöÑÈïøÂ∫¶Â§ß‰∫éÊÄªbuf len,ËØ¥ÊòéÊé•Êî∂Èî
  44:modules/can_comm/can_comm.c ****         if (comm->cur_recv_len + _instance->rx_len > comm->recv_buf_len)
  99              		.loc 1 44 9 is_stmt 1 view .LVU20
 100              		.loc 1 44 17 is_stmt 0 view .LVU21
 101 0016 95F8C530 		ldrb	r3, [r5, #197]	@ zero_extendqisi2
 102              		.loc 1 44 43 view .LVU22
 103 001a 94F84420 		ldrb	r2, [r4, #68]	@ zero_extendqisi2
 104              		.loc 1 44 32 view .LVU23
 105 001e 9818     		adds	r0, r3, r2
 106              	.LVL5:
 107              		.loc 1 44 58 view .LVU24
 108 0020 95F84710 		ldrb	r1, [r5, #71]	@ zero_extendqisi2
 109              		.loc 1 44 12 view .LVU25
 110 0024 8842     		cmp	r0, r1
 111 0026 21DC     		bgt	.L10
  45:modules/can_comm/can_comm.c ****         {
  46:modules/can_comm/can_comm.c ****             CANCommResetRx(comm);
  47:modules/can_comm/can_comm.c ****             return; // ÈáçÁΩÆÁä∂ÊÄÅÁÑ∂ÂêéËøîÂõû
  48:modules/can_comm/can_comm.c ****         }
  49:modules/can_comm/can_comm.c **** 
  50:modules/can_comm/can_comm.c ****         // Áõ¥Êé•ÊääÂΩìÂâçÊé•Êî∂Âà∞ÁöÑÊï∞ÊçÆÊé•Âà∞bufferÂêéÈù¢
  51:modules/can_comm/can_comm.c ****         memcpy(comm->raw_recvbuf + comm->cur_recv_len, _instance->rx_buff, _instance->rx_len);
 112              		.loc 1 51 9 is_stmt 1 view .LVU26
 113              		.loc 1 51 16 is_stmt 0 view .LVU27
 114 0028 05F14800 		add	r0, r5, #72
 115              		.loc 1 51 9 view .LVU28
 116 002c 04F13801 		add	r1, r4, #56
 117 0030 1844     		add	r0, r0, r3
 118 0032 FFF7FEFF 		bl	memcpy
 119              	.LVL6:
  52:modules/can_comm/can_comm.c ****         comm->cur_recv_len += _instance->rx_len;
 120              		.loc 1 52 9 is_stmt 1 view .LVU29
 121              		.loc 1 52 40 is_stmt 0 view .LVU30
 122 0036 94F84430 		ldrb	r3, [r4, #68]	@ zero_extendqisi2
ARM GAS  C:\Users\blue\AppData\Local\Temp\ccT83Jn3.s 			page 4


 123              		.loc 1 52 28 view .LVU31
 124 003a 95F8C520 		ldrb	r2, [r5, #197]	@ zero_extendqisi2
 125 003e 1344     		add	r3, r3, r2
 126 0040 DBB2     		uxtb	r3, r3
 127 0042 85F8C530 		strb	r3, [r5, #197]
  53:modules/can_comm/can_comm.c **** 
  54:modules/can_comm/can_comm.c ****         // Êî∂ÂÆåËøô‰∏ÄÂåÖ‰ª•ÂêéÂàöÂ•ΩÁ≠â‰∫éÊÄªbuf len,ËØ¥ÊòéÂ∑≤ÁªèÊî∂ÂÆå‰∫Ü
  55:modules/can_comm/can_comm.c ****         if (comm->cur_recv_len == comm->recv_buf_len)
 128              		.loc 1 55 9 is_stmt 1 view .LVU32
 129              		.loc 1 55 39 is_stmt 0 view .LVU33
 130 0046 95F84720 		ldrb	r2, [r5, #71]	@ zero_extendqisi2
 131              		.loc 1 55 12 view .LVU34
 132 004a 9342     		cmp	r3, r2
 133 004c 12D0     		beq	.L11
 134              	.LVL7:
 135              	.L3:
  56:modules/can_comm/can_comm.c ****         {
  57:modules/can_comm/can_comm.c ****             // Â¶ÇÊûúbuffÈáåÊú¨tailÁöÑ‰ΩçÁΩÆÁ≠â‰∫éCAN_COMM_TAIL
  58:modules/can_comm/can_comm.c ****             if (comm->raw_recvbuf[comm->recv_buf_len - 1] == CAN_COMM_TAIL)
  59:modules/can_comm/can_comm.c ****             { // ÈÄöËøáÊ†°È™å,Â§çÂà∂Êï∞ÊçÆÂà∞unpack_data‰∏≠
  60:modules/can_comm/can_comm.c ****                 if (comm->raw_recvbuf[comm->recv_buf_len - 2] == crc_8(comm->raw_recvbuf + 2, comm-
  61:modules/can_comm/can_comm.c ****                 { // Êï∞ÊçÆÈáèÂ§ßÁöÑËØùËÄÉËôë‰ΩøÁî®DMA
  62:modules/can_comm/can_comm.c ****                     memcpy(comm->unpacked_recv_data, comm->raw_recvbuf + 2, comm->recv_data_len);
  63:modules/can_comm/can_comm.c ****                     comm->update_flag = 1;           // Êï∞ÊçÆÊõ¥Êñ∞flagÁΩÆ‰∏∫1
  64:modules/can_comm/can_comm.c ****                     DaemonReload(comm->comm_daemon); // ÈáçËΩΩdaemon,ÈÅøÂÖçÊï∞ÊçÆÊõ¥Êñ∞Âêé‰∏ÄÁõ¥‰∏ç
  65:modules/can_comm/can_comm.c ****                 }
  66:modules/can_comm/can_comm.c ****             }
  67:modules/can_comm/can_comm.c ****             CANCommResetRx(comm);
  68:modules/can_comm/can_comm.c ****             return; // ÈáçÁΩÆÁä∂ÊÄÅÁÑ∂ÂêéËøîÂõû
  69:modules/can_comm/can_comm.c ****         }
  70:modules/can_comm/can_comm.c ****     }
  71:modules/can_comm/can_comm.c **** }
 136              		.loc 1 71 1 view .LVU35
 137 004e 70BD     		pop	{r4, r5, r6, pc}
 138              	.LVL8:
 139              	.L9:
  31:modules/can_comm/can_comm.c ****     {
 140              		.loc 1 31 57 discriminator 1 view .LVU36
 141 0050 95F8C430 		ldrb	r3, [r5, #196]	@ zero_extendqisi2
  31:modules/can_comm/can_comm.c ****     {
 142              		.loc 1 31 50 discriminator 1 view .LVU37
 143 0054 002B     		cmp	r3, #0
 144 0056 DBD1     		bne	.L4
  33:modules/can_comm/can_comm.c ****         {
 145              		.loc 1 33 9 is_stmt 1 view .LVU38
  33:modules/can_comm/can_comm.c ****         {
 146              		.loc 1 33 31 is_stmt 0 view .LVU39
 147 0058 90F83920 		ldrb	r2, [r0, #57]	@ zero_extendqisi2
  33:modules/can_comm/can_comm.c ****         {
 148              		.loc 1 33 42 view .LVU40
 149 005c 95F84630 		ldrb	r3, [r5, #70]	@ zero_extendqisi2
  33:modules/can_comm/can_comm.c ****         {
 150              		.loc 1 33 12 view .LVU41
 151 0060 9A42     		cmp	r2, r3
 152 0062 F4D1     		bne	.L3
  35:modules/can_comm/can_comm.c ****         }
 153              		.loc 1 35 13 is_stmt 1 view .LVU42
ARM GAS  C:\Users\blue\AppData\Local\Temp\ccT83Jn3.s 			page 5


  35:modules/can_comm/can_comm.c ****         }
 154              		.loc 1 35 30 is_stmt 0 view .LVU43
 155 0064 0123     		movs	r3, #1
 156 0066 85F8C430 		strb	r3, [r5, #196]
 157 006a D1E7     		b	.L4
 158              	.LVL9:
 159              	.L10:
  46:modules/can_comm/can_comm.c ****             return; // ÈáçÁΩÆÁä∂ÊÄÅÁÑ∂ÂêéËøîÂõû
 160              		.loc 1 46 13 is_stmt 1 view .LVU44
 161 006c 2846     		mov	r0, r5
 162 006e FFF7FEFF 		bl	CANCommResetRx
 163              	.LVL10:
  47:modules/can_comm/can_comm.c ****         }
 164              		.loc 1 47 13 view .LVU45
 165 0072 ECE7     		b	.L3
 166              	.L11:
  58:modules/can_comm/can_comm.c ****             { // ÈÄöËøáÊ†°È™å,Â§çÂà∂Êï∞ÊçÆÂà∞unpack_data‰∏≠
 167              		.loc 1 58 13 view .LVU46
  58:modules/can_comm/can_comm.c ****             { // ÈÄöËøáÊ†°È™å,Â§çÂà∂Êï∞ÊçÆÂà∞unpack_data‰∏≠
 168              		.loc 1 58 54 is_stmt 0 view .LVU47
 169 0074 531E     		subs	r3, r2, #1
  58:modules/can_comm/can_comm.c ****             { // ÈÄöËøáÊ†°È™å,Â§çÂà∂Êï∞ÊçÆÂà∞unpack_data‰∏≠
 170              		.loc 1 58 34 view .LVU48
 171 0076 2B44     		add	r3, r3, r5
 172 0078 93F84830 		ldrb	r3, [r3, #72]	@ zero_extendqisi2
  58:modules/can_comm/can_comm.c ****             { // ÈÄöËøáÊ†°È™å,Â§çÂà∂Êï∞ÊçÆÂà∞unpack_data‰∏≠
 173              		.loc 1 58 16 view .LVU49
 174 007c 652B     		cmp	r3, #101
 175 007e 03D0     		beq	.L12
 176              	.LVL11:
 177              	.L7:
  67:modules/can_comm/can_comm.c ****             return; // ÈáçÁΩÆÁä∂ÊÄÅÁÑ∂ÂêéËøîÂõû
 178              		.loc 1 67 13 is_stmt 1 view .LVU50
 179 0080 2846     		mov	r0, r5
 180 0082 FFF7FEFF 		bl	CANCommResetRx
 181              	.LVL12:
  68:modules/can_comm/can_comm.c ****         }
 182              		.loc 1 68 13 view .LVU51
 183 0086 E2E7     		b	.L3
 184              	.LVL13:
 185              	.L12:
  60:modules/can_comm/can_comm.c ****                 { // Êï∞ÊçÆÈáèÂ§ßÁöÑËØùËÄÉËôë‰ΩøÁî®DMA
 186              		.loc 1 60 17 view .LVU52
  60:modules/can_comm/can_comm.c ****                 { // Êï∞ÊçÆÈáèÂ§ßÁöÑËØùËÄÉËôë‰ΩøÁî®DMA
 187              		.loc 1 60 58 is_stmt 0 view .LVU53
 188 0088 931E     		subs	r3, r2, #2
  60:modules/can_comm/can_comm.c ****                 { // Êï∞ÊçÆÈáèÂ§ßÁöÑËØùËÄÉËôë‰ΩøÁî®DMA
 189              		.loc 1 60 38 view .LVU54
 190 008a 2B44     		add	r3, r3, r5
 191 008c 93F84860 		ldrb	r6, [r3, #72]	@ zero_extendqisi2
  60:modules/can_comm/can_comm.c ****                 { // Êï∞ÊçÆÈáèÂ§ßÁöÑËØùËÄÉËôë‰ΩøÁî®DMA
 192              		.loc 1 60 66 view .LVU55
 193 0090 05F14A04 		add	r4, r5, #74
 194              	.LVL14:
  60:modules/can_comm/can_comm.c ****                 { // Êï∞ÊçÆÈáèÂ§ßÁöÑËØùËÄÉËôë‰ΩøÁî®DMA
 195              		.loc 1 60 66 view .LVU56
 196 0094 95F84610 		ldrb	r1, [r5, #70]	@ zero_extendqisi2
ARM GAS  C:\Users\blue\AppData\Local\Temp\ccT83Jn3.s 			page 6


 197 0098 2046     		mov	r0, r4
 198 009a FFF7FEFF 		bl	crc_8
 199              	.LVL15:
  60:modules/can_comm/can_comm.c ****                 { // Êï∞ÊçÆÈáèÂ§ßÁöÑËØùËÄÉËôë‰ΩøÁî®DMA
 200              		.loc 1 60 20 view .LVU57
 201 009e 8642     		cmp	r6, r0
 202 00a0 EED1     		bne	.L7
  62:modules/can_comm/can_comm.c ****                     comm->update_flag = 1;           // Êï∞ÊçÆÊõ¥Êñ∞flagÁΩÆ‰∏∫1
 203              		.loc 1 62 21 is_stmt 1 view .LVU58
 204 00a2 95F84620 		ldrb	r2, [r5, #70]	@ zero_extendqisi2
 205 00a6 2146     		mov	r1, r4
 206 00a8 05F18800 		add	r0, r5, #136
 207 00ac FFF7FEFF 		bl	memcpy
 208              	.LVL16:
  63:modules/can_comm/can_comm.c ****                     DaemonReload(comm->comm_daemon); // ÈáçËΩΩdaemon,ÈÅøÂÖçÊï∞ÊçÆÊõ¥Êñ∞Âêé‰∏ÄÁõ¥‰∏ç
 209              		.loc 1 63 21 view .LVU59
  63:modules/can_comm/can_comm.c ****                     DaemonReload(comm->comm_daemon); // ÈáçËΩΩdaemon,ÈÅøÂÖçÊï∞ÊçÆÊõ¥Êñ∞Âêé‰∏ÄÁõ¥‰∏ç
 210              		.loc 1 63 39 is_stmt 0 view .LVU60
 211 00b0 0123     		movs	r3, #1
 212 00b2 85F8C630 		strb	r3, [r5, #198]
  64:modules/can_comm/can_comm.c ****                 }
 213              		.loc 1 64 21 is_stmt 1 view .LVU61
 214 00b6 D5F8C700 		ldr	r0, [r5, #199]	@ unaligned
 215 00ba FFF7FEFF 		bl	DaemonReload
 216              	.LVL17:
 217 00be DFE7     		b	.L7
 218              		.cfi_endproc
 219              	.LFE148:
 221              		.section	.text.CANCommLostCallback,"ax",%progbits
 222              		.align	1
 223              		.syntax unified
 224              		.thumb
 225              		.thumb_func
 227              	CANCommLostCallback:
 228              	.LVL18:
 229              	.LFB149:
  72:modules/can_comm/can_comm.c **** 
  73:modules/can_comm/can_comm.c **** static void CANCommLostCallback(void *cancomm)
  74:modules/can_comm/can_comm.c **** {
 230              		.loc 1 74 1 view -0
 231              		.cfi_startproc
 232              		@ args = 0, pretend = 0, frame = 0
 233              		@ frame_needed = 0, uses_anonymous_args = 0
 234              		.loc 1 74 1 is_stmt 0 view .LVU63
 235 0000 08B5     		push	{r3, lr}
 236              	.LCFI2:
 237              		.cfi_def_cfa_offset 8
 238              		.cfi_offset 3, -8
 239              		.cfi_offset 14, -4
  75:modules/can_comm/can_comm.c ****     CANCommInstance *comm = (CANCommInstance *)cancomm;
 240              		.loc 1 75 5 is_stmt 1 view .LVU64
 241              	.LVL19:
  76:modules/can_comm/can_comm.c ****     CANCommResetRx(comm);
 242              		.loc 1 76 5 view .LVU65
 243 0002 FFF7FEFF 		bl	CANCommResetRx
 244              	.LVL20:
  77:modules/can_comm/can_comm.c ****     // LOGWARNING("[can_comm] can comm rx[%d] lost, reset rx state.", &comm->can_ins->rx_id);
ARM GAS  C:\Users\blue\AppData\Local\Temp\ccT83Jn3.s 			page 7


  78:modules/can_comm/can_comm.c **** }
 245              		.loc 1 78 1 is_stmt 0 view .LVU66
 246 0006 08BD     		pop	{r3, pc}
 247              		.cfi_endproc
 248              	.LFE149:
 250              		.section	.text.CANCommInit,"ax",%progbits
 251              		.align	1
 252              		.global	CANCommInit
 253              		.syntax unified
 254              		.thumb
 255              		.thumb_func
 257              	CANCommInit:
 258              	.LVL21:
 259              	.LFB150:
  79:modules/can_comm/can_comm.c **** 
  80:modules/can_comm/can_comm.c **** CANCommInstance *CANCommInit(CANComm_Init_Config_s *comm_config)
  81:modules/can_comm/can_comm.c **** {
 260              		.loc 1 81 1 is_stmt 1 view -0
 261              		.cfi_startproc
 262              		@ args = 0, pretend = 0, frame = 16
 263              		@ frame_needed = 0, uses_anonymous_args = 0
 264              		.loc 1 81 1 is_stmt 0 view .LVU68
 265 0000 30B5     		push	{r4, r5, lr}
 266              	.LCFI3:
 267              		.cfi_def_cfa_offset 12
 268              		.cfi_offset 4, -12
 269              		.cfi_offset 5, -8
 270              		.cfi_offset 14, -4
 271 0002 85B0     		sub	sp, sp, #20
 272              	.LCFI4:
 273              		.cfi_def_cfa_offset 32
 274 0004 0546     		mov	r5, r0
  82:modules/can_comm/can_comm.c ****     CANCommInstance *ins = (CANCommInstance *)malloc(sizeof(CANCommInstance));
 275              		.loc 1 82 5 is_stmt 1 view .LVU69
 276              		.loc 1 82 47 is_stmt 0 view .LVU70
 277 0006 CB20     		movs	r0, #203
 278              	.LVL22:
 279              		.loc 1 82 47 view .LVU71
 280 0008 FFF7FEFF 		bl	malloc
 281              	.LVL23:
 282 000c 0446     		mov	r4, r0
 283              	.LVL24:
  83:modules/can_comm/can_comm.c ****     memset(ins, 0, sizeof(CANCommInstance));
 284              		.loc 1 83 5 is_stmt 1 view .LVU72
 285 000e CB22     		movs	r2, #203
 286 0010 0021     		movs	r1, #0
 287 0012 FFF7FEFF 		bl	memset
 288              	.LVL25:
  84:modules/can_comm/can_comm.c **** 
  85:modules/can_comm/can_comm.c ****     ins->recv_data_len = comm_config->recv_data_len;
 289              		.loc 1 85 5 view .LVU73
 290              		.loc 1 85 37 is_stmt 0 view .LVU74
 291 0016 6B7D     		ldrb	r3, [r5, #21]	@ zero_extendqisi2
 292              		.loc 1 85 24 view .LVU75
 293 0018 84F84630 		strb	r3, [r4, #70]
  86:modules/can_comm/can_comm.c ****     ins->recv_buf_len = comm_config->recv_data_len + CAN_COMM_OFFSET_BYTES; // head + datalen + crc
 294              		.loc 1 86 5 is_stmt 1 view .LVU76
ARM GAS  C:\Users\blue\AppData\Local\Temp\ccT83Jn3.s 			page 8


 295              		.loc 1 86 52 is_stmt 0 view .LVU77
 296 001c 0433     		adds	r3, r3, #4
 297              		.loc 1 86 23 view .LVU78
 298 001e 84F84730 		strb	r3, [r4, #71]
  87:modules/can_comm/can_comm.c ****     ins->send_data_len = comm_config->send_data_len;
 299              		.loc 1 87 5 is_stmt 1 view .LVU79
 300              		.loc 1 87 37 is_stmt 0 view .LVU80
 301 0022 2B7D     		ldrb	r3, [r5, #20]	@ zero_extendqisi2
 302              		.loc 1 87 24 view .LVU81
 303 0024 2371     		strb	r3, [r4, #4]
  88:modules/can_comm/can_comm.c ****     ins->send_buf_len = comm_config->send_data_len + CAN_COMM_OFFSET_BYTES;
 304              		.loc 1 88 5 is_stmt 1 view .LVU82
 305              		.loc 1 88 52 is_stmt 0 view .LVU83
 306 0026 1A1D     		adds	r2, r3, #4
 307              		.loc 1 88 23 view .LVU84
 308 0028 6271     		strb	r2, [r4, #5]
  89:modules/can_comm/can_comm.c ****     ins->raw_sendbuf[0] = CAN_COMM_HEADER;            // head,Áõ¥Êé•ËÆæÁΩÆÈÅøÂÖçÊØèÊ¨°ÂèëÈÄÅÈÉΩË¶ÅÈ
 309              		.loc 1 89 5 is_stmt 1 view .LVU85
 310              		.loc 1 89 25 is_stmt 0 view .LVU86
 311 002a 7322     		movs	r2, #115
 312 002c A271     		strb	r2, [r4, #6]
  90:modules/can_comm/can_comm.c ****     ins->raw_sendbuf[1] = comm_config->send_data_len; // datalen
 313              		.loc 1 90 5 is_stmt 1 view .LVU87
 314              		.loc 1 90 25 is_stmt 0 view .LVU88
 315 002e E371     		strb	r3, [r4, #7]
  91:modules/can_comm/can_comm.c ****     ins->raw_sendbuf[comm_config->send_data_len + CAN_COMM_OFFSET_BYTES - 1] = CAN_COMM_TAIL;
 316              		.loc 1 91 5 is_stmt 1 view .LVU89
 317              		.loc 1 91 73 is_stmt 0 view .LVU90
 318 0030 0333     		adds	r3, r3, #3
 319              		.loc 1 91 78 view .LVU91
 320 0032 2344     		add	r3, r3, r4
 321 0034 6522     		movs	r2, #101
 322 0036 9A71     		strb	r2, [r3, #6]
  92:modules/can_comm/can_comm.c ****     // can instanceÁöÑËÆæÁΩÆ
  93:modules/can_comm/can_comm.c ****     comm_config->can_config.id = ins; // CANCommÁöÑÂÆû‰æãÊåáÈíà‰Ωú‰∏∫CANInstanceÁöÑid,ÂõûË∞ÉÂáΩÊï∞‰
 323              		.loc 1 93 5 is_stmt 1 view .LVU92
 324              		.loc 1 93 32 is_stmt 0 view .LVU93
 325 0038 2C61     		str	r4, [r5, #16]
  94:modules/can_comm/can_comm.c ****     comm_config->can_config.can_module_callback = CANCommRxCallback;
 326              		.loc 1 94 5 is_stmt 1 view .LVU94
 327              		.loc 1 94 49 is_stmt 0 view .LVU95
 328 003a 0A4B     		ldr	r3, .L17
 329 003c EB60     		str	r3, [r5, #12]
  95:modules/can_comm/can_comm.c ****     ins->can_ins = CANRegister(&comm_config->can_config);
 330              		.loc 1 95 5 is_stmt 1 view .LVU96
 331              		.loc 1 95 20 is_stmt 0 view .LVU97
 332 003e 2846     		mov	r0, r5
 333 0040 FFF7FEFF 		bl	CANRegister
 334              	.LVL26:
 335              		.loc 1 95 18 view .LVU98
 336 0044 2060     		str	r0, [r4]	@ unaligned
  96:modules/can_comm/can_comm.c **** 
  97:modules/can_comm/can_comm.c ****     Daemon_Init_Config_s daemon_config = {
 337              		.loc 1 97 5 is_stmt 1 view .LVU99
  98:modules/can_comm/can_comm.c ****         .callback = CANCommLostCallback,
  99:modules/can_comm/can_comm.c ****         .owner_id = (void *)ins,
 100:modules/can_comm/can_comm.c ****         .reload_count = comm_config->daemon_count,
ARM GAS  C:\Users\blue\AppData\Local\Temp\ccT83Jn3.s 			page 9


 338              		.loc 1 100 36 is_stmt 0 view .LVU100
 339 0046 EB8A     		ldrh	r3, [r5, #22]
  97:modules/can_comm/can_comm.c ****         .callback = CANCommLostCallback,
 340              		.loc 1 97 26 view .LVU101
 341 0048 ADF80430 		strh	r3, [sp, #4]	@ movhi
 342 004c 064B     		ldr	r3, .L17+4
 343 004e 0293     		str	r3, [sp, #8]
 344 0050 0394     		str	r4, [sp, #12]
 101:modules/can_comm/can_comm.c ****     };
 102:modules/can_comm/can_comm.c ****     ins->comm_daemon = DaemonRegister(&daemon_config);
 345              		.loc 1 102 5 is_stmt 1 view .LVU102
 346              		.loc 1 102 24 is_stmt 0 view .LVU103
 347 0052 01A8     		add	r0, sp, #4
 348 0054 FFF7FEFF 		bl	DaemonRegister
 349              	.LVL27:
 350              		.loc 1 102 22 view .LVU104
 351 0058 C4F8C700 		str	r0, [r4, #199]	@ unaligned
 103:modules/can_comm/can_comm.c ****     return ins;
 352              		.loc 1 103 5 is_stmt 1 view .LVU105
 104:modules/can_comm/can_comm.c **** }
 353              		.loc 1 104 1 is_stmt 0 view .LVU106
 354 005c 2046     		mov	r0, r4
 355 005e 05B0     		add	sp, sp, #20
 356              	.LCFI5:
 357              		.cfi_def_cfa_offset 12
 358              		@ sp needed
 359 0060 30BD     		pop	{r4, r5, pc}
 360              	.LVL28:
 361              	.L18:
 362              		.loc 1 104 1 view .LVU107
 363 0062 00BF     		.align	2
 364              	.L17:
 365 0064 00000000 		.word	CANCommRxCallback
 366 0068 00000000 		.word	CANCommLostCallback
 367              		.cfi_endproc
 368              	.LFE150:
 370              		.section	.text.CANCommSend,"ax",%progbits
 371              		.align	1
 372              		.global	CANCommSend
 373              		.syntax unified
 374              		.thumb
 375              		.thumb_func
 377              	CANCommSend:
 378              	.LVL29:
 379              	.LFB151:
 105:modules/can_comm/can_comm.c **** 
 106:modules/can_comm/can_comm.c **** void CANCommSend(CANCommInstance *instance, uint8_t *data)
 107:modules/can_comm/can_comm.c **** {
 380              		.loc 1 107 1 is_stmt 1 view -0
 381              		.cfi_startproc
 382              		@ args = 0, pretend = 0, frame = 0
 383              		@ frame_needed = 0, uses_anonymous_args = 0
 384              		.loc 1 107 1 is_stmt 0 view .LVU109
 385 0000 70B5     		push	{r4, r5, r6, lr}
 386              	.LCFI6:
 387              		.cfi_def_cfa_offset 16
 388              		.cfi_offset 4, -16
ARM GAS  C:\Users\blue\AppData\Local\Temp\ccT83Jn3.s 			page 10


 389              		.cfi_offset 5, -12
 390              		.cfi_offset 6, -8
 391              		.cfi_offset 14, -4
 392 0002 0546     		mov	r5, r0
 393 0004 0C46     		mov	r4, r1
 108:modules/can_comm/can_comm.c ****     static uint8_t crc8;
 394              		.loc 1 108 5 is_stmt 1 view .LVU110
 109:modules/can_comm/can_comm.c ****     static uint8_t send_len;
 395              		.loc 1 109 5 view .LVU111
 110:modules/can_comm/can_comm.c ****     // Â∞Üdata copyÂà∞raw_sendbuf‰∏≠,ËÆ°ÁÆócrc8
 111:modules/can_comm/can_comm.c ****     memcpy(instance->raw_sendbuf + 2, data, instance->send_data_len);
 396              		.loc 1 111 5 view .LVU112
 397              		.loc 1 111 53 is_stmt 0 view .LVU113
 398 0006 0679     		ldrb	r6, [r0, #4]	@ zero_extendqisi2
 399              		.loc 1 111 5 view .LVU114
 400 0008 3246     		mov	r2, r6
 401 000a 0830     		adds	r0, r0, #8
 402              	.LVL30:
 403              		.loc 1 111 5 view .LVU115
 404 000c FFF7FEFF 		bl	memcpy
 405              	.LVL31:
 112:modules/can_comm/can_comm.c ****     crc8 = crc_8(data, instance->send_data_len);
 406              		.loc 1 112 5 is_stmt 1 view .LVU116
 407              		.loc 1 112 12 is_stmt 0 view .LVU117
 408 0010 3146     		mov	r1, r6
 409 0012 2046     		mov	r0, r4
 410 0014 FFF7FEFF 		bl	crc_8
 411              	.LVL32:
 412              		.loc 1 112 10 view .LVU118
 413 0018 114B     		ldr	r3, .L23
 414 001a 1870     		strb	r0, [r3]
 113:modules/can_comm/can_comm.c ****     instance->raw_sendbuf[2 + instance->send_data_len] = crc8;
 415              		.loc 1 113 5 is_stmt 1 view .LVU119
 416              		.loc 1 113 39 is_stmt 0 view .LVU120
 417 001c 2B79     		ldrb	r3, [r5, #4]	@ zero_extendqisi2
 418              		.loc 1 113 29 view .LVU121
 419 001e 0233     		adds	r3, r3, #2
 420              		.loc 1 113 56 view .LVU122
 421 0020 2B44     		add	r3, r3, r5
 422 0022 9871     		strb	r0, [r3, #6]
 114:modules/can_comm/can_comm.c **** 
 115:modules/can_comm/can_comm.c ****     // CANÂçïÊ¨°ÂèëÈÄÅÊúÄÂ§ß‰∏∫8Â≠óËäÇ,Â¶ÇÊûúË∂ÖËøá8Â≠óËäÇ,ÈúÄË¶ÅÂàÜÂåÖÂèëÈÄÅ
 116:modules/can_comm/can_comm.c ****     for (size_t i = 0; i < instance->send_buf_len; i += 8)
 423              		.loc 1 116 5 is_stmt 1 view .LVU123
 424              	.LBB2:
 425              		.loc 1 116 10 view .LVU124
 426              	.LVL33:
 427              		.loc 1 116 17 is_stmt 0 view .LVU125
 428 0024 0024     		movs	r4, #0
 429              	.LVL34:
 430              		.loc 1 116 5 view .LVU126
 431 0026 17E0     		b	.L20
 432              	.LVL35:
 433              	.L21:
 117:modules/can_comm/can_comm.c ****     { // Â¶ÇÊûúÊòØÊúÄÂêé‰∏ÄÂåÖ,send lenÂ∞Ü‰ºöÂ∞è‰∫é8,Ë¶Å‰øÆÊîπCANÁöÑtxconf‰∏≠ÁöÑDLC‰Ωç,Ë∞ÉÁî®bsp_ca
 118:modules/can_comm/can_comm.c ****         send_len = instance->send_buf_len - i >= 8 ? 8 : instance->send_buf_len - i;
 434              		.loc 1 118 9 is_stmt 1 discriminator 3 view .LVU127
ARM GAS  C:\Users\blue\AppData\Local\Temp\ccT83Jn3.s 			page 11


 435              		.loc 1 118 43 is_stmt 0 discriminator 3 view .LVU128
 436 0028 091B     		subs	r1, r1, r4
 437              		.loc 1 118 56 discriminator 3 view .LVU129
 438 002a 0829     		cmp	r1, #8
 439 002c 28BF     		it	cs
 440 002e 0821     		movcs	r1, #8
 441              		.loc 1 118 18 discriminator 3 view .LVU130
 442 0030 C9B2     		uxtb	r1, r1
 443 0032 0C4E     		ldr	r6, .L23+4
 444 0034 3170     		strb	r1, [r6]
 119:modules/can_comm/can_comm.c ****         CANSetDLC(instance->can_ins, send_len);
 445              		.loc 1 119 9 is_stmt 1 discriminator 3 view .LVU131
 446 0036 2868     		ldr	r0, [r5]	@ unaligned
 447 0038 FFF7FEFF 		bl	CANSetDLC
 448              	.LVL36:
 120:modules/can_comm/can_comm.c ****         memcpy(instance->can_ins->tx_buff, instance->raw_sendbuf + i, send_len);
 449              		.loc 1 120 9 discriminator 3 view .LVU132
 450              		.loc 1 120 24 is_stmt 0 discriminator 3 view .LVU133
 451 003c 2946     		mov	r1, r5
 452 003e 51F8060B 		ldr	r0, [r1], #6	@ unaligned
 453              		.loc 1 120 9 discriminator 3 view .LVU134
 454 0042 3278     		ldrb	r2, [r6]	@ zero_extendqisi2
 455 0044 2144     		add	r1, r1, r4
 456 0046 3030     		adds	r0, r0, #48
 457 0048 FFF7FEFF 		bl	memcpy
 458              	.LVL37:
 121:modules/can_comm/can_comm.c ****         CANTransmit(instance->can_ins, 1);
 459              		.loc 1 121 9 is_stmt 1 discriminator 3 view .LVU135
 460 004c B7EE000A 		vmov.f32	s0, #1.0e+0
 461 0050 2868     		ldr	r0, [r5]	@ unaligned
 462 0052 FFF7FEFF 		bl	CANTransmit
 463              	.LVL38:
 116:modules/can_comm/can_comm.c ****     { // Â¶ÇÊûúÊòØÊúÄÂêé‰∏ÄÂåÖ,send lenÂ∞Ü‰ºöÂ∞è‰∫é8,Ë¶Å‰øÆÊîπCANÁöÑtxconf‰∏≠ÁöÑDLC‰Ωç,Ë∞ÉÁî®bsp_ca
 464              		.loc 1 116 52 discriminator 3 view .LVU136
 116:modules/can_comm/can_comm.c ****     { // Â¶ÇÊûúÊòØÊúÄÂêé‰∏ÄÂåÖ,send lenÂ∞Ü‰ºöÂ∞è‰∫é8,Ë¶Å‰øÆÊîπCANÁöÑtxconf‰∏≠ÁöÑDLC‰Ωç,Ë∞ÉÁî®bsp_ca
 465              		.loc 1 116 54 is_stmt 0 discriminator 3 view .LVU137
 466 0056 0834     		adds	r4, r4, #8
 467              	.LVL39:
 468              	.L20:
 116:modules/can_comm/can_comm.c ****     { // Â¶ÇÊûúÊòØÊúÄÂêé‰∏ÄÂåÖ,send lenÂ∞Ü‰ºöÂ∞è‰∫é8,Ë¶Å‰øÆÊîπCANÁöÑtxconf‰∏≠ÁöÑDLC‰Ωç,Ë∞ÉÁî®bsp_ca
 469              		.loc 1 116 24 is_stmt 1 discriminator 1 view .LVU138
 116:modules/can_comm/can_comm.c ****     { // Â¶ÇÊûúÊòØÊúÄÂêé‰∏ÄÂåÖ,send lenÂ∞Ü‰ºöÂ∞è‰∫é8,Ë¶Å‰øÆÊîπCANÁöÑtxconf‰∏≠ÁöÑDLC‰Ωç,Ë∞ÉÁî®bsp_ca
 470              		.loc 1 116 36 is_stmt 0 discriminator 1 view .LVU139
 471 0058 6979     		ldrb	r1, [r5, #5]	@ zero_extendqisi2
 116:modules/can_comm/can_comm.c ****     { // Â¶ÇÊûúÊòØÊúÄÂêé‰∏ÄÂåÖ,send lenÂ∞Ü‰ºöÂ∞è‰∫é8,Ë¶Å‰øÆÊîπCANÁöÑtxconf‰∏≠ÁöÑDLC‰Ωç,Ë∞ÉÁî®bsp_ca
 472              		.loc 1 116 5 discriminator 1 view .LVU140
 473 005a A142     		cmp	r1, r4
 474 005c E4D8     		bhi	.L21
 475              	.LBE2:
 122:modules/can_comm/can_comm.c ****     }
 123:modules/can_comm/can_comm.c **** }
 476              		.loc 1 123 1 view .LVU141
 477 005e 70BD     		pop	{r4, r5, r6, pc}
 478              	.LVL40:
 479              	.L24:
 480              		.loc 1 123 1 view .LVU142
 481              		.align	2
ARM GAS  C:\Users\blue\AppData\Local\Temp\ccT83Jn3.s 			page 12


 482              	.L23:
 483 0060 00000000 		.word	.LANCHOR0
 484 0064 00000000 		.word	.LANCHOR1
 485              		.cfi_endproc
 486              	.LFE151:
 488              		.section	.text.CANCommGet,"ax",%progbits
 489              		.align	1
 490              		.global	CANCommGet
 491              		.syntax unified
 492              		.thumb
 493              		.thumb_func
 495              	CANCommGet:
 496              	.LVL41:
 497              	.LFB152:
 124:modules/can_comm/can_comm.c **** 
 125:modules/can_comm/can_comm.c **** void *CANCommGet(CANCommInstance *instance)
 126:modules/can_comm/can_comm.c **** {
 498              		.loc 1 126 1 is_stmt 1 view -0
 499              		.cfi_startproc
 500              		@ args = 0, pretend = 0, frame = 0
 501              		@ frame_needed = 0, uses_anonymous_args = 0
 502              		@ link register save eliminated.
 127:modules/can_comm/can_comm.c ****     instance->update_flag = 0; // ËØªÂèñÂêéÂ∞ÜÊõ¥Êñ∞flagÁΩÆ‰∏∫0
 503              		.loc 1 127 5 view .LVU144
 504              		.loc 1 127 27 is_stmt 0 view .LVU145
 505 0000 0023     		movs	r3, #0
 506 0002 80F8C630 		strb	r3, [r0, #198]
 128:modules/can_comm/can_comm.c ****     return instance->unpacked_recv_data;
 507              		.loc 1 128 5 is_stmt 1 view .LVU146
 129:modules/can_comm/can_comm.c **** }
 508              		.loc 1 129 1 is_stmt 0 view .LVU147
 509 0006 8830     		adds	r0, r0, #136
 510              	.LVL42:
 511              		.loc 1 129 1 view .LVU148
 512 0008 7047     		bx	lr
 513              		.cfi_endproc
 514              	.LFE152:
 516              		.section	.text.CANCommIsOnline,"ax",%progbits
 517              		.align	1
 518              		.global	CANCommIsOnline
 519              		.syntax unified
 520              		.thumb
 521              		.thumb_func
 523              	CANCommIsOnline:
 524              	.LVL43:
 525              	.LFB153:
 130:modules/can_comm/can_comm.c **** 
 131:modules/can_comm/can_comm.c **** uint8_t CANCommIsOnline(CANCommInstance *instance)
 132:modules/can_comm/can_comm.c **** {
 526              		.loc 1 132 1 is_stmt 1 view -0
 527              		.cfi_startproc
 528              		@ args = 0, pretend = 0, frame = 0
 529              		@ frame_needed = 0, uses_anonymous_args = 0
 530              		.loc 1 132 1 is_stmt 0 view .LVU150
 531 0000 08B5     		push	{r3, lr}
 532              	.LCFI7:
 533              		.cfi_def_cfa_offset 8
ARM GAS  C:\Users\blue\AppData\Local\Temp\ccT83Jn3.s 			page 13


 534              		.cfi_offset 3, -8
 535              		.cfi_offset 14, -4
 133:modules/can_comm/can_comm.c ****     return DaemonIsOnline(instance->comm_daemon);
 536              		.loc 1 133 5 is_stmt 1 view .LVU151
 537              		.loc 1 133 12 is_stmt 0 view .LVU152
 538 0002 D0F8C700 		ldr	r0, [r0, #199]	@ unaligned
 539              	.LVL44:
 540              		.loc 1 133 12 view .LVU153
 541 0006 FFF7FEFF 		bl	DaemonIsOnline
 542              	.LVL45:
 134:modules/can_comm/can_comm.c **** }
 543              		.loc 1 134 1 view .LVU154
 544 000a 08BD     		pop	{r3, pc}
 545              		.cfi_endproc
 546              	.LFE153:
 548              		.section	.bss.crc8.1,"aw",%nobits
 549              		.set	.LANCHOR0,. + 0
 552              	crc8.1:
 553 0000 00       		.space	1
 554              		.section	.bss.send_len.0,"aw",%nobits
 555              		.set	.LANCHOR1,. + 0
 558              	send_len.0:
 559 0000 00       		.space	1
 560              		.text
 561              	.Letext0:
 562              		.file 2 "d:\\rm\\arm-gnu-toolchian\\arm-none-eabi\\include\\machine\\_default_types.h"
 563              		.file 3 "d:\\rm\\arm-gnu-toolchian\\arm-none-eabi\\include\\sys\\_stdint.h"
 564              		.file 4 "Drivers/CMSIS/Device/ST/STM32H7xx/Include/stm32h743xx.h"
 565              		.file 5 "Drivers/CMSIS/Device/ST/STM32H7xx/Include/stm32h7xx.h"
 566              		.file 6 "d:\\rm\\arm-gnu-toolchian\\lib\\gcc\\arm-none-eabi\\10.3.1\\include\\stddef.h"
 567              		.file 7 "Drivers/STM32H7xx_HAL_Driver/Inc/stm32h7xx_hal_def.h"
 568              		.file 8 "Drivers/STM32H7xx_HAL_Driver/Inc/stm32h7xx_hal_fdcan.h"
 569              		.file 9 "bsp/can/bsp_can.h"
 570              		.file 10 "modules/daemon/daemon.h"
 571              		.file 11 "modules/can_comm/can_comm.h"
 572              		.file 12 "modules/algorithm/crc8.h"
 573              		.file 13 "d:\\rm\\arm-gnu-toolchian\\arm-none-eabi\\include\\stdlib.h"
 574              		.file 14 "<built-in>"
ARM GAS  C:\Users\blue\AppData\Local\Temp\ccT83Jn3.s 			page 14

