ARM GAS  C:\Users\blue\AppData\Local\Temp\ccZsplOl.s 			page 1


   1              		.cpu cortex-m7
   2              		.arch armv7e-m
   3              		.fpu fpv5-d16
   4              		.eabi_attribute 28, 1
   5              		.eabi_attribute 20, 1
   6              		.eabi_attribute 21, 1
   7              		.eabi_attribute 23, 3
   8              		.eabi_attribute 24, 1
   9              		.eabi_attribute 25, 1
  10              		.eabi_attribute 26, 1
  11              		.eabi_attribute 30, 1
  12              		.eabi_attribute 34, 1
  13              		.eabi_attribute 18, 4
  14              		.file	"chassis.c"
  15              		.text
  16              	.Ltext0:
  17              		.cfi_sections	.debug_frame
  18              		.section	.text.OmniCalculate,"ax",%progbits
  19              		.align	1
  20              		.syntax unified
  21              		.thumb
  22              		.thumb_func
  24              	OmniCalculate:
  25              	.LFB188:
  26              		.file 1 "application/chassis/chassis.c"
   1:application/chassis/chassis.c **** #include "chassis.h"
   2:application/chassis/chassis.c **** #include "robot_def.h"
   3:application/chassis/chassis.c **** #include "dji_motor.h"
   4:application/chassis/chassis.c **** #include "message_center.h"
   5:application/chassis/chassis.c **** 
   6:application/chassis/chassis.c **** #include "general_def.h"
   7:application/chassis/chassis.c **** #include "bsp_dwt.h"
   8:application/chassis/chassis.c **** #include "arm_math.h"
   9:application/chassis/chassis.c **** #include "ops.h"
  10:application/chassis/chassis.c **** #include "usart.h"
  11:application/chassis/chassis.c **** /* Ê†πÊçÆrobot_def.h‰∏≠ÁöÑmacroËá™Âä®ËÆ°ÁÆóÁöÑÂèÇÊï∞ */
  12:application/chassis/chassis.c **** #define HALF_WHEEL_BASE (WHEEL_BASE / 2.0f)     // ÂçäËΩ¥Ë∑ù
  13:application/chassis/chassis.c **** #define HALF_TRACK_WIDTH (TRACK_WIDTH / 2.0f)   // ÂçäËΩÆË∑ù
  14:application/chassis/chassis.c **** #define PERIMETER_WHEEL (RADIUS_WHEEL * 2 * PI) // ËΩÆÂ≠êÂë®Èïø
  15:application/chassis/chassis.c **** 
  16:application/chassis/chassis.c **** /* Â∫ïÁõòÂ∫îÁî®ÂåÖÂê´ÁöÑÊ®°ÂùóÂíå‰ø°ÊÅØÂ≠òÂÇ®,Â∫ïÁõòÊòØÂçï‰æãÊ®°Âºè,Âõ†Ê≠§‰∏çÈúÄË¶Å‰∏∫Â∫ïÁõòÂª∫Á´ãÂ
  17:application/chassis/chassis.c **** #ifdef CHASSIS_BOARD // Â¶ÇÊûúÊòØÂ∫ïÁõòÊùø,‰ΩøÁî®ÊùøËΩΩIMUËé∑ÂèñÂ∫ïÁõòËΩ¨Âä®ËßíÈÄüÂ∫¶
  18:application/chassis/chassis.c **** #include "can_comm.h"
  19:application/chassis/chassis.c **** #include "ins_task.h"
  20:application/chassis/chassis.c **** static CANCommInstance *chasiss_can_comm; // ÂèåÊùøÈÄö‰ø°CAN comm
  21:application/chassis/chassis.c **** 
  22:application/chassis/chassis.c **** #endif // CHASSIS_BOARD
  23:application/chassis/chassis.c **** #ifdef ONE_BOARD
  24:application/chassis/chassis.c **** static Publisher_t *chassis_pub;                    // Áî®‰∫éÂèëÂ∏ÉÂ∫ïÁõòÁöÑÊï∞ÊçÆ
  25:application/chassis/chassis.c **** static Subscriber_t *chassis_sub;                   // Áî®‰∫éËÆ¢ÈòÖÂ∫ïÁõòÁöÑÊéßÂà∂ÂëΩ‰ª§
  26:application/chassis/chassis.c **** #endif                                              // !ONE_BOARD
  27:application/chassis/chassis.c **** static Chassis_Ctrl_Cmd_s chassis_cmd_recv;         // Â∫ïÁõòÊé•Êî∂Âà∞ÁöÑÊéßÂà∂ÂëΩ‰ª§
  28:application/chassis/chassis.c **** static Chassis_Upload_Data_s chassis_feedback_data; // Â∫ïÁõòÂõû‰º†ÁöÑÂèçÈ¶àÊï∞ÊçÆ
  29:application/chassis/chassis.c **** 
  30:application/chassis/chassis.c **** static DJIMotorInstance *motor_lf, *motor_rf, *motor_lb, *motor_rb; // left right forward back
  31:application/chassis/chassis.c **** static PIDInstance x_pid_instance, y_pid_instance, heading_pid_instance;
  32:application/chassis/chassis.c **** /*-------------------------data--------------------------*/
ARM GAS  C:\Users\blue\AppData\Local\Temp\ccZsplOl.s 			page 2


  33:application/chassis/chassis.c **** static OPS_data_t *ops_data;
  34:application/chassis/chassis.c **** /* Áî®‰∫éËá™ÊóãÂèòÈÄüÁ≠ñÁï•ÁöÑÊó∂Èó¥ÂèòÈáè */
  35:application/chassis/chassis.c **** // static float t;
  36:application/chassis/chassis.c **** 
  37:application/chassis/chassis.c **** /* ÁßÅÊúâÂáΩÊï∞ËÆ°ÁÆóÁöÑ‰∏≠‰ªãÂèòÈáè,ËÆæ‰∏∫ÈùôÊÄÅÈÅøÂÖçÂèÇÊï∞‰º†ÈÄíÁöÑÂºÄÈîÄ */
  38:application/chassis/chassis.c **** static float chassis_vx, chassis_vy, chassis_w, ff_vx, ff_vy; // Â∞Ü‰∫ëÂè∞Á≥ªÁöÑÈÄüÂ∫¶ÊäïÂΩ±Âà∞Â∫ïÁ
  39:application/chassis/chassis.c **** static float vt_lf, vt_rf, vt_lb, vt_rb;                      // Â∫ïÁõòÈÄüÂ∫¶Ëß£ÁÆóÂêéÁöÑ‰∏¥Êó∂ËæìÂ
  40:application/chassis/chassis.c **** 
  41:application/chassis/chassis.c **** void ChassisInit()
  42:application/chassis/chassis.c **** {
  43:application/chassis/chassis.c ****     /*----------------data-------------------*/
  44:application/chassis/chassis.c ****     ops_data = Ops_Init(&huart6);
  45:application/chassis/chassis.c ****     /*---------------x, y and heading loop--------------*/
  46:application/chassis/chassis.c ****     PID_Init_Config_s xy_pid_init_config =
  47:application/chassis/chassis.c ****         {
  48:application/chassis/chassis.c ****             .Kp = 1,
  49:application/chassis/chassis.c ****             .Ki = 0,
  50:application/chassis/chassis.c ****             .Kd = 0,
  51:application/chassis/chassis.c ****             .IntegralLimit = 500,
  52:application/chassis/chassis.c ****             .Improve = PID_Trapezoid_Intergral | PID_Integral_Limit | PID_Derivative_On_Measurement
  53:application/chassis/chassis.c ****             .MaxOut = 15000,
  54:application/chassis/chassis.c ****         };
  55:application/chassis/chassis.c ****     PID_Init_Config_s heading_pid_init_config =
  56:application/chassis/chassis.c ****         {
  57:application/chassis/chassis.c ****             .Kp = 1,
  58:application/chassis/chassis.c ****             .Ki = 0,
  59:application/chassis/chassis.c ****             .Kd = 0,
  60:application/chassis/chassis.c ****             .IntegralLimit = 500,
  61:application/chassis/chassis.c ****             .Improve = PID_Trapezoid_Intergral | PID_Integral_Limit | PID_Derivative_On_Measurement
  62:application/chassis/chassis.c ****             .MaxOut = 2000,
  63:application/chassis/chassis.c ****         };
  64:application/chassis/chassis.c ****     PIDInit(&x_pid_instance, &xy_pid_init_config);
  65:application/chassis/chassis.c ****     PIDInit(&y_pid_instance, &xy_pid_init_config);
  66:application/chassis/chassis.c ****     PIDInit(&heading_pid_instance, &heading_pid_init_config);
  67:application/chassis/chassis.c ****     /*---------------speed and current loops--------------*/
  68:application/chassis/chassis.c ****     // Âõõ‰∏™ËΩÆÂ≠êÁöÑÂèÇÊï∞‰∏ÄÊ†∑,Êîπtx_idÂíåÂèçËΩ¨Ê†áÂøó‰ΩçÂç≥ÂèØ
  69:application/chassis/chassis.c ****     Motor_Init_Config_s chassis_motor_config = {
  70:application/chassis/chassis.c ****         // the initialization from module to bsp_
  71:application/chassis/chassis.c ****         .can_init_config.can_handle = &hfdcan1, // canÈÄöÁî®ËÆæÁΩÆÔºåÊõ¥Â§öÈÖçÁΩÆÂú®‰∏ãÈù¢ÊåâÂÖ∑‰Ωì
  72:application/chassis/chassis.c ****         .controller_param_init_config = {
  73:application/chassis/chassis.c ****             .speed_PID = {
  74:application/chassis/chassis.c ****                 .Kp = 1, // 4.5
  75:application/chassis/chassis.c ****                 .Ki = 0, // 0
  76:application/chassis/chassis.c ****                 .Kd = 0, // 0
  77:application/chassis/chassis.c ****                 .IntegralLimit = 3000,
  78:application/chassis/chassis.c ****                 .Improve = PID_Trapezoid_Intergral | PID_Integral_Limit | PID_Derivative_On_Measure
  79:application/chassis/chassis.c ****                 .MaxOut = 12000,
  80:application/chassis/chassis.c ****             },
  81:application/chassis/chassis.c ****             .current_PID = {
  82:application/chassis/chassis.c ****                 .Kp = 1, // 0.4
  83:application/chassis/chassis.c ****                 .Ki = 0, // 0
  84:application/chassis/chassis.c ****                 .Kd = 0,
  85:application/chassis/chassis.c ****                 .IntegralLimit = 3000,
  86:application/chassis/chassis.c ****                 .Improve = PID_Trapezoid_Intergral | PID_Integral_Limit | PID_Derivative_On_Measure
  87:application/chassis/chassis.c ****                 .MaxOut = 15000,
  88:application/chassis/chassis.c ****             },
  89:application/chassis/chassis.c ****         },
ARM GAS  C:\Users\blue\AppData\Local\Temp\ccZsplOl.s 			page 3


  90:application/chassis/chassis.c ****         .controller_setting_init_config = {
  91:application/chassis/chassis.c ****             .angle_feedback_source = MOTOR_FEED, // ‰ªéÁîµË∞ÉËé∑ÂæóÂèçÈ¶à
  92:application/chassis/chassis.c ****             .speed_feedback_source = MOTOR_FEED,
  93:application/chassis/chassis.c ****             .outer_loop_type = SPEED_LOOP, // ÈÄüÂ∫¶ÁéØÂ•óÁîµÊµÅÁéØ
  94:application/chassis/chassis.c ****             .close_loop_type = SPEED_LOOP | CURRENT_LOOP,
  95:application/chassis/chassis.c ****         },
  96:application/chassis/chassis.c ****         .motor_type = M2006,
  97:application/chassis/chassis.c ****     };
  98:application/chassis/chassis.c ****     //  @todo: ÂΩìÂâçËøòÊ≤°ÊúâËÆæÁΩÆÁîµÊú∫ÁöÑÊ≠£ÂèçËΩ¨,‰ªçÁÑ∂ÈúÄË¶ÅÊâãÂä®Ê∑ªÂä†referenceÁöÑÊ≠£Ë¥üÂè
  99:application/chassis/chassis.c ****     chassis_motor_config.can_init_config.tx_id = 1;
 100:application/chassis/chassis.c ****     chassis_motor_config.controller_setting_init_config.motor_reverse_flag = MOTOR_DIRECTION_REVERS
 101:application/chassis/chassis.c ****     motor_lf = DJIMotorInit(&chassis_motor_config);
 102:application/chassis/chassis.c **** 
 103:application/chassis/chassis.c ****     chassis_motor_config.can_init_config.tx_id = 2;
 104:application/chassis/chassis.c ****     chassis_motor_config.controller_setting_init_config.motor_reverse_flag = MOTOR_DIRECTION_REVERS
 105:application/chassis/chassis.c ****     motor_rf = DJIMotorInit(&chassis_motor_config);
 106:application/chassis/chassis.c **** 
 107:application/chassis/chassis.c ****     chassis_motor_config.can_init_config.tx_id = 4;
 108:application/chassis/chassis.c ****     chassis_motor_config.controller_setting_init_config.motor_reverse_flag = MOTOR_DIRECTION_REVERS
 109:application/chassis/chassis.c ****     motor_lb = DJIMotorInit(&chassis_motor_config);
 110:application/chassis/chassis.c **** 
 111:application/chassis/chassis.c ****     chassis_motor_config.can_init_config.tx_id = 3;
 112:application/chassis/chassis.c ****     chassis_motor_config.controller_setting_init_config.motor_reverse_flag = MOTOR_DIRECTION_REVERS
 113:application/chassis/chassis.c ****     motor_rb = DJIMotorInit(&chassis_motor_config);
 114:application/chassis/chassis.c **** 
 115:application/chassis/chassis.c **** #ifdef ONE_BOARD // ÂçïÊùøÊéßÂà∂Êï¥ËΩ¶,ÂàôÈÄöËøápubsubÊù•‰º†ÈÄíÊ∂àÊÅØ
 116:application/chassis/chassis.c ****     chassis_sub = SubRegister("chassis_cmd", sizeof(Chassis_Ctrl_Cmd_s));
 117:application/chassis/chassis.c ****     chassis_pub = PubRegister("chassis_feed", sizeof(Chassis_Upload_Data_s));
 118:application/chassis/chassis.c **** #endif // ONE_BOARD
 119:application/chassis/chassis.c **** }
 120:application/chassis/chassis.c **** 
 121:application/chassis/chassis.c **** /**
 122:application/chassis/chassis.c ****  * @brief calculate position pid loop -> target speed
 123:application/chassis/chassis.c ****  */
 124:application/chassis/chassis.c **** static void speedCalculate(void)
 125:application/chassis/chassis.c **** {
 126:application/chassis/chassis.c **** 
 127:application/chassis/chassis.c ****     PIDCalculate(&x_pid_instance, ops_data->OPS_x, chassis_cmd_recv.x);
 128:application/chassis/chassis.c ****     PIDCalculate(&y_pid_instance, ops_data->OPS_y, chassis_cmd_recv.y);
 129:application/chassis/chassis.c ****     PIDCalculate(&heading_pid_instance, ops_data->OPS_heading + ops_data->OPS_ring * 360, chassis_c
 130:application/chassis/chassis.c **** 
 131:application/chassis/chassis.c ****     // calculate feedforward
 132:application/chassis/chassis.c ****     ff_vx = (x_pid_instance.Err > 0.3 ? 0.1 * chassis_cmd_recv.x : 0);
 133:application/chassis/chassis.c ****     ff_vy = (y_pid_instance.Err > 0.3 ? 0.1 * chassis_cmd_recv.y : 0);
 134:application/chassis/chassis.c ****     // ff_w = 0.01 * chassis_cmd_recv.heading;
 135:application/chassis/chassis.c **** 
 136:application/chassis/chassis.c ****     chassis_vx = x_pid_instance.Output + ff_vx; // ÂèØËÉΩÈúÄË¶Å‰πòÁ≥ªÊï∞
 137:application/chassis/chassis.c ****     chassis_vy = y_pid_instance.Output + ff_vy; //
 138:application/chassis/chassis.c ****     chassis_w = heading_pid_instance.Output;
 139:application/chassis/chassis.c **** }
 140:application/chassis/chassis.c **** 
 141:application/chassis/chassis.c **** /**
 142:application/chassis/chassis.c ****  * @brief coordinate transform, ‰∫ëÂè∞ÂùêÊ†áÁ≥ªÂà∞Â∫ïÁõòÂùêÊ†áÁ≥ªÁöÑÂèòÊç¢
 143:application/chassis/chassis.c ****  */
 144:application/chassis/chassis.c **** static void CoordinateTransform(void)
 145:application/chassis/chassis.c **** {
 146:application/chassis/chassis.c ****     // Ê†πÊçÆËßíÂ∫¶offsetÂ∞ÜÊéßÂà∂ÈáèÊò†Â∞ÑÂà∞Â∫ïÁõòÂùêÊ†áÁ≥ª‰∏ä
ARM GAS  C:\Users\blue\AppData\Local\Temp\ccZsplOl.s 			page 4


 147:application/chassis/chassis.c ****     // Â∫ïÁõòÈÄÜÊó∂ÈíàÊóãËΩ¨‰∏∫ËßíÂ∫¶Ê≠£ÊñπÂêë; yÊ≠£ÂåóÔºåxÊ≠£‰∏ú
 148:application/chassis/chassis.c ****     static float sin_theta, cos_theta;
 149:application/chassis/chassis.c ****     cos_theta = arm_cos_f32(ops_data->OPS_heading * DEGREE_2_RAD);
 150:application/chassis/chassis.c ****     sin_theta = arm_sin_f32(ops_data->OPS_heading * DEGREE_2_RAD);
 151:application/chassis/chassis.c ****     chassis_vx = chassis_vx * cos_theta - chassis_vy * sin_theta;
 152:application/chassis/chassis.c ****     chassis_vy = chassis_vx * sin_theta + chassis_vy * cos_theta;
 153:application/chassis/chassis.c **** }
 154:application/chassis/chassis.c **** 
 155:application/chassis/chassis.c **** #define LF_CENTER ((HALF_TRACK_WIDTH + CENTER_GIMBAL_OFFSET_X + HALF_WHEEL_BASE - CENTER_GIMBAL_OFF
 156:application/chassis/chassis.c **** #define RF_CENTER ((HALF_TRACK_WIDTH - CENTER_GIMBAL_OFFSET_X + HALF_WHEEL_BASE - CENTER_GIMBAL_OFF
 157:application/chassis/chassis.c **** #define LB_CENTER ((HALF_TRACK_WIDTH + CENTER_GIMBAL_OFFSET_X + HALF_WHEEL_BASE + CENTER_GIMBAL_OFF
 158:application/chassis/chassis.c **** #define RB_CENTER ((HALF_TRACK_WIDTH - CENTER_GIMBAL_OFFSET_X + HALF_WHEEL_BASE + CENTER_GIMBAL_OFF
 159:application/chassis/chassis.c **** /**
 160:application/chassis/chassis.c ****  * @brief ËÆ°ÁÆóÊØè‰∏™ËΩÆÊØÇÁîµÊú∫ÁöÑËæìÂá∫,Ê≠£ËøêÂä®Â≠¶Ëß£ÁÆó
 161:application/chassis/chassis.c ****  *        Áî®ÂÆèËøõË°åÈ¢ÑÊõøÊç¢ÂáèÂ∞èÂºÄÈîÄ,ËøêÂä®Ëß£ÁÆóÂÖ∑‰ΩìËøáÁ®ãÂèÇËÄÉÊïôÁ®ã
 162:application/chassis/chassis.c ****  */
 163:application/chassis/chassis.c **** static void OmniCalculate()
 164:application/chassis/chassis.c **** {
  27              		.loc 1 164 1 view -0
  28              		.cfi_startproc
  29              		@ args = 0, pretend = 0, frame = 0
  30              		@ frame_needed = 0, uses_anonymous_args = 0
  31              		@ link register save eliminated.
 165:application/chassis/chassis.c ****     // vt_lf = chassis_vx + chassis_vy + chassis_cmd_recv.wz * LF_CENTER;
 166:application/chassis/chassis.c ****     // vt_rf = -chassis_vx + chassis_vy - chassis_cmd_recv.wz * RF_CENTER;
 167:application/chassis/chassis.c ****     // vt_lb = -chassis_vx + chassis_vy + chassis_cmd_recv.wz * LB_CENTER;
 168:application/chassis/chassis.c ****     // vt_rb = chassis_vx + chassis_vy - chassis_cmd_recv.wz * RB_CENTER;
 169:application/chassis/chassis.c ****     // PIDCalculate(&w_pid_instance, chassis_heading, ops_data->OPS_heading + ops_data->OPS_ring * 
 170:application/chassis/chassis.c ****     vt_lf = chassis_vx + chassis_vy - chassis_w * LF_CENTER;
  32              		.loc 1 170 5 view .LVU1
  33              		.loc 1 170 24 is_stmt 0 view .LVU2
  34 0000 124B     		ldr	r3, .L2
  35 0002 93ED006A 		vldr.32	s12, [r3]
  36 0006 124B     		ldr	r3, .L2+4
  37 0008 D3ED007A 		vldr.32	s15, [r3]
  38 000c 76EE276A 		vadd.f32	s13, s12, s15
  39              		.loc 1 170 49 view .LVU3
  40 0010 104B     		ldr	r3, .L2+8
  41 0012 93ED007A 		vldr.32	s14, [r3]
  42 0016 DFED105A 		vldr.32	s11, .L2+12
  43 001a 27EE257A 		vmul.f32	s14, s14, s11
  44              		.loc 1 170 37 view .LVU4
  45 001e 76EEC75A 		vsub.f32	s11, s13, s14
  46              		.loc 1 170 11 view .LVU5
  47 0022 0E4B     		ldr	r3, .L2+16
  48 0024 C3ED005A 		vstr.32	s11, [r3]
 171:application/chassis/chassis.c ****     vt_rf = -chassis_vx + chassis_vy + chassis_w * RF_CENTER;
  49              		.loc 1 171 5 is_stmt 1 view .LVU6
  50              		.loc 1 171 25 is_stmt 0 view .LVU7
  51 0028 77EEC67A 		vsub.f32	s15, s15, s12
  52              		.loc 1 171 38 view .LVU8
  53 002c 37EE276A 		vadd.f32	s12, s14, s15
  54              		.loc 1 171 11 view .LVU9
  55 0030 0B4B     		ldr	r3, .L2+20
  56 0032 83ED006A 		vstr.32	s12, [r3]
 172:application/chassis/chassis.c ****     vt_lb = -chassis_vx + chassis_vy - chassis_w * LB_CENTER;
  57              		.loc 1 172 5 is_stmt 1 view .LVU10
ARM GAS  C:\Users\blue\AppData\Local\Temp\ccZsplOl.s 			page 5


  58              		.loc 1 172 38 is_stmt 0 view .LVU11
  59 0036 77EEC77A 		vsub.f32	s15, s15, s14
  60              		.loc 1 172 11 view .LVU12
  61 003a 0A4B     		ldr	r3, .L2+24
  62 003c C3ED007A 		vstr.32	s15, [r3]
 173:application/chassis/chassis.c ****     vt_rb = chassis_vx + chassis_vy + chassis_w * RB_CENTER;
  63              		.loc 1 173 5 is_stmt 1 view .LVU13
  64              		.loc 1 173 37 is_stmt 0 view .LVU14
  65 0040 36EE877A 		vadd.f32	s14, s13, s14
  66              		.loc 1 173 11 view .LVU15
  67 0044 084B     		ldr	r3, .L2+28
  68 0046 83ED007A 		vstr.32	s14, [r3]
 174:application/chassis/chassis.c **** }
  69              		.loc 1 174 1 view .LVU16
  70 004a 7047     		bx	lr
  71              	.L3:
  72              		.align	2
  73              	.L2:
  74 004c 00000000 		.word	.LANCHOR0
  75 0050 00000000 		.word	.LANCHOR1
  76 0054 00000000 		.word	.LANCHOR2
  77 0058 A583B540 		.word	1085637541
  78 005c 00000000 		.word	.LANCHOR3
  79 0060 00000000 		.word	.LANCHOR4
  80 0064 00000000 		.word	.LANCHOR5
  81 0068 00000000 		.word	.LANCHOR6
  82              		.cfi_endproc
  83              	.LFE188:
  85              		.section	.text.CheckStable,"ax",%progbits
  86              		.align	1
  87              		.syntax unified
  88              		.thumb
  89              		.thumb_func
  91              	CheckStable:
  92              	.LFB190:
 175:application/chassis/chassis.c **** 
 176:application/chassis/chassis.c **** /**
 177:application/chassis/chassis.c ****  * @brief Ê†πÊçÆË£ÅÂà§Á≥ªÁªüÂíåÁîµÂÆπÂâ©‰ΩôÂÆπÈáèÂØπËæìÂá∫ËøõË°åÈôêÂà∂Âπ∂ËÆæÁΩÆÁîµÊú∫ÂèÇËÄÉÂÄº
 178:application/chassis/chassis.c ****  *
 179:application/chassis/chassis.c ****  */
 180:application/chassis/chassis.c **** static void LimitChassisOutput()
 181:application/chassis/chassis.c **** {
 182:application/chassis/chassis.c ****     // ÂäüÁéáÈôêÂà∂ÂæÖÊ∑ªÂä†}
 183:application/chassis/chassis.c ****     // referee_data->PowerHeatData.chassis_power;
 184:application/chassis/chassis.c ****     // referee_data->PowerHeatData.chassis_power_buffer;
 185:application/chassis/chassis.c **** 
 186:application/chassis/chassis.c ****     // ÂÆåÊàêÂäüÁéáÈôêÂà∂ÂêéËøõË°åÁîµÊú∫ÂèÇËÄÉËæìÂÖ•ËÆæÂÆö
 187:application/chassis/chassis.c ****     DJIMotorSetRef(motor_lf, vt_lf);
 188:application/chassis/chassis.c ****     DJIMotorSetRef(motor_rf, vt_rf);
 189:application/chassis/chassis.c ****     DJIMotorSetRef(motor_lb, vt_lb);
 190:application/chassis/chassis.c ****     DJIMotorSetRef(motor_rb, vt_rb);
 191:application/chassis/chassis.c **** }
 192:application/chassis/chassis.c **** 
 193:application/chassis/chassis.c **** /**
 194:application/chassis/chassis.c ****  * @brief Âà§Êñ≠ËøêÂä®ÁõÆÊ†á‰ΩçÁΩÆÊòØÂê¶Âú®ËåÉÂõ¥ÂÜÖ
 195:application/chassis/chassis.c ****  */
 196:application/chassis/chassis.c **** static void CheckStable(void)
ARM GAS  C:\Users\blue\AppData\Local\Temp\ccZsplOl.s 			page 6


 197:application/chassis/chassis.c **** {
  93              		.loc 1 197 1 is_stmt 1 view -0
  94              		.cfi_startproc
  95              		@ args = 0, pretend = 0, frame = 0
  96              		@ frame_needed = 0, uses_anonymous_args = 0
  97              		@ link register save eliminated.
 198:application/chassis/chassis.c ****     chassis_feedback_data.chassis_arrive = 0;
  98              		.loc 1 198 5 view .LVU18
  99              		.loc 1 198 42 is_stmt 0 view .LVU19
 100 0000 294B     		ldr	r3, .L19+8
 101 0002 0022     		movs	r2, #0
 102 0004 1A70     		strb	r2, [r3]
 199:application/chassis/chassis.c ****     chassis_feedback_data.chassis_vague_arrive = 0;
 103              		.loc 1 199 5 is_stmt 1 view .LVU20
 104              		.loc 1 199 48 is_stmt 0 view .LVU21
 105 0006 5A70     		strb	r2, [r3, #1]
 200:application/chassis/chassis.c ****     if (fabs(x_pid_instance.Err) < 0.2 && fabs(y_pid_instance.Err) < 0.2 && fabs(heading_pid_instan
 106              		.loc 1 200 5 is_stmt 1 view .LVU22
 107              		.loc 1 200 28 is_stmt 0 view .LVU23
 108 0008 284B     		ldr	r3, .L19+12
 109 000a D3ED0D7A 		vldr.32	s15, [r3, #52]
 110              		.loc 1 200 9 view .LVU24
 111 000e F0EEE77A 		vabs.f32	s15, s15
 112 0012 B7EEE75A 		vcvt.f64.f32	d5, s15
 113              		.loc 1 200 8 view .LVU25
 114 0016 9FED226B 		vldr.64	d6, .L19
 115 001a B4EEC65B 		vcmpe.f64	d5, d6
 116 001e F1EE10FA 		vmrs	APSR_nzcv, FPSCR
 117 0022 1CD5     		bpl	.L5
 118              		.loc 1 200 62 discriminator 1 view .LVU26
 119 0024 224B     		ldr	r3, .L19+16
 120 0026 93ED0D6A 		vldr.32	s12, [r3, #52]
 121              		.loc 1 200 43 discriminator 1 view .LVU27
 122 002a B0EEC66A 		vabs.f32	s12, s12
 123 002e B7EEC66A 		vcvt.f64.f32	d6, s12
 124              		.loc 1 200 40 discriminator 1 view .LVU28
 125 0032 9FED1B5B 		vldr.64	d5, .L19
 126 0036 B4EEC56B 		vcmpe.f64	d6, d5
 127 003a F1EE10FA 		vmrs	APSR_nzcv, FPSCR
 128 003e 0ED5     		bpl	.L5
 129              		.loc 1 200 102 discriminator 2 view .LVU29
 130 0040 1C4B     		ldr	r3, .L19+20
 131 0042 93ED0D6A 		vldr.32	s12, [r3, #52]
 132              		.loc 1 200 77 discriminator 2 view .LVU30
 133 0046 B0EEC66A 		vabs.f32	s12, s12
 134 004a B7EEC66A 		vcvt.f64.f32	d6, s12
 135              		.loc 1 200 74 discriminator 2 view .LVU31
 136 004e B4EEC56B 		vcmpe.f64	d6, d5
 137 0052 F1EE10FA 		vmrs	APSR_nzcv, FPSCR
 138 0056 02D5     		bpl	.L5
 201:application/chassis/chassis.c ****         chassis_feedback_data.chassis_arrive = 1;
 139              		.loc 1 201 9 is_stmt 1 view .LVU32
 140              		.loc 1 201 46 is_stmt 0 view .LVU33
 141 0058 134B     		ldr	r3, .L19+8
 142 005a 0122     		movs	r2, #1
 143 005c 1A70     		strb	r2, [r3]
 144              	.L5:
ARM GAS  C:\Users\blue\AppData\Local\Temp\ccZsplOl.s 			page 7


 202:application/chassis/chassis.c ****     // else
 203:application/chassis/chassis.c ****     //     chassis_feedback_data.chassis_arrive = 0;
 204:application/chassis/chassis.c **** 
 205:application/chassis/chassis.c ****     if (fabs(x_pid_instance.Err) < 2 && fabs(y_pid_instance.Err) < 2 && fabs(heading_pid_instance.E
 145              		.loc 1 205 5 is_stmt 1 view .LVU34
 146              		.loc 1 205 8 is_stmt 0 view .LVU35
 147 005e B0EE007A 		vmov.f32	s14, #2.0e+0
 148 0062 F4EEC77A 		vcmpe.f32	s15, s14
 149 0066 F1EE10FA 		vmrs	APSR_nzcv, FPSCR
 150 006a 16D5     		bpl	.L4
 151              		.loc 1 205 60 discriminator 1 view .LVU36
 152 006c 104B     		ldr	r3, .L19+16
 153 006e D3ED0D7A 		vldr.32	s15, [r3, #52]
 154              		.loc 1 205 41 discriminator 1 view .LVU37
 155 0072 F0EEE77A 		vabs.f32	s15, s15
 156              		.loc 1 205 38 discriminator 1 view .LVU38
 157 0076 F4EEC77A 		vcmpe.f32	s15, s14
 158 007a F1EE10FA 		vmrs	APSR_nzcv, FPSCR
 159 007e 0CD5     		bpl	.L4
 160              		.loc 1 205 98 discriminator 2 view .LVU39
 161 0080 0C4B     		ldr	r3, .L19+20
 162 0082 D3ED0D7A 		vldr.32	s15, [r3, #52]
 163              		.loc 1 205 73 discriminator 2 view .LVU40
 164 0086 F0EEE77A 		vabs.f32	s15, s15
 165              		.loc 1 205 70 discriminator 2 view .LVU41
 166 008a F4EEC77A 		vcmpe.f32	s15, s14
 167 008e F1EE10FA 		vmrs	APSR_nzcv, FPSCR
 168 0092 02D5     		bpl	.L4
 206:application/chassis/chassis.c ****         chassis_feedback_data.chassis_vague_arrive = 1;
 169              		.loc 1 206 9 is_stmt 1 view .LVU42
 170              		.loc 1 206 52 is_stmt 0 view .LVU43
 171 0094 044B     		ldr	r3, .L19+8
 172 0096 0122     		movs	r2, #1
 173 0098 5A70     		strb	r2, [r3, #1]
 174              	.L4:
 207:application/chassis/chassis.c ****     // else
 208:application/chassis/chassis.c ****     // chassis_feedback_data.chassis_vague_arrive = 0;
 209:application/chassis/chassis.c **** }
 175              		.loc 1 209 1 view .LVU44
 176 009a 7047     		bx	lr
 177              	.L20:
 178 009c AFF30080 		.align	3
 179              	.L19:
 180 00a0 9A999999 		.word	-1717986918
 181 00a4 9999C93F 		.word	1070176665
 182 00a8 00000000 		.word	.LANCHOR7
 183 00ac 00000000 		.word	.LANCHOR8
 184 00b0 00000000 		.word	.LANCHOR9
 185 00b4 00000000 		.word	.LANCHOR10
 186              		.cfi_endproc
 187              	.LFE190:
 189              		.section	.text.speedCalculate,"ax",%progbits
 190              		.align	1
 191              		.syntax unified
 192              		.thumb
 193              		.thumb_func
 195              	speedCalculate:
ARM GAS  C:\Users\blue\AppData\Local\Temp\ccZsplOl.s 			page 8


 196              	.LFB186:
 125:application/chassis/chassis.c **** 
 197              		.loc 1 125 1 is_stmt 1 view -0
 198              		.cfi_startproc
 199              		@ args = 0, pretend = 0, frame = 0
 200              		@ frame_needed = 0, uses_anonymous_args = 0
 201 0000 70B5     		push	{r4, r5, r6, lr}
 202              	.LCFI0:
 203              		.cfi_def_cfa_offset 16
 204              		.cfi_offset 4, -16
 205              		.cfi_offset 5, -12
 206              		.cfi_offset 6, -8
 207              		.cfi_offset 14, -4
 127:application/chassis/chassis.c ****     PIDCalculate(&y_pid_instance, ops_data->OPS_y, chassis_cmd_recv.y);
 208              		.loc 1 127 5 view .LVU46
 127:application/chassis/chassis.c ****     PIDCalculate(&y_pid_instance, ops_data->OPS_y, chassis_cmd_recv.y);
 209              		.loc 1 127 43 is_stmt 0 view .LVU47
 210 0002 3D4D     		ldr	r5, .L33+16
 211 0004 2B68     		ldr	r3, [r5]
 127:application/chassis/chassis.c ****     PIDCalculate(&y_pid_instance, ops_data->OPS_y, chassis_cmd_recv.y);
 212              		.loc 1 127 5 view .LVU48
 213 0006 3D4C     		ldr	r4, .L33+20
 214 0008 3D4E     		ldr	r6, .L33+24
 215 000a D4ED000A 		vldr.32	s1, [r4]
 216 000e 93ED000A 		vldr.32	s0, [r3]
 217 0012 3046     		mov	r0, r6
 218 0014 FFF7FEFF 		bl	PIDCalculate
 219              	.LVL0:
 128:application/chassis/chassis.c ****     PIDCalculate(&heading_pid_instance, ops_data->OPS_heading + ops_data->OPS_ring * 360, chassis_c
 220              		.loc 1 128 5 is_stmt 1 view .LVU49
 128:application/chassis/chassis.c ****     PIDCalculate(&heading_pid_instance, ops_data->OPS_heading + ops_data->OPS_ring * 360, chassis_c
 221              		.loc 1 128 43 is_stmt 0 view .LVU50
 222 0018 2B68     		ldr	r3, [r5]
 128:application/chassis/chassis.c ****     PIDCalculate(&heading_pid_instance, ops_data->OPS_heading + ops_data->OPS_ring * 360, chassis_c
 223              		.loc 1 128 5 view .LVU51
 224 001a D4ED010A 		vldr.32	s1, [r4, #4]
 225 001e 93ED010A 		vldr.32	s0, [r3, #4]
 226 0022 3848     		ldr	r0, .L33+28
 227 0024 FFF7FEFF 		bl	PIDCalculate
 228              	.LVL1:
 129:application/chassis/chassis.c **** 
 229              		.loc 1 129 5 is_stmt 1 view .LVU52
 129:application/chassis/chassis.c **** 
 230              		.loc 1 129 49 is_stmt 0 view .LVU53
 231 0028 2B68     		ldr	r3, [r5]
 232 002a 93ED020A 		vldr.32	s0, [r3, #8]
 129:application/chassis/chassis.c **** 
 233              		.loc 1 129 73 view .LVU54
 234 002e DB68     		ldr	r3, [r3, #12]
 129:application/chassis/chassis.c **** 
 235              		.loc 1 129 84 view .LVU55
 236 0030 4FF4B472 		mov	r2, #360
 237 0034 02FB03F3 		mul	r3, r2, r3
 129:application/chassis/chassis.c **** 
 238              		.loc 1 129 5 view .LVU56
 239 0038 07EE903A 		vmov	s15, r3	@ int
 240 003c F8EEE77A 		vcvt.f32.s32	s15, s15
ARM GAS  C:\Users\blue\AppData\Local\Temp\ccZsplOl.s 			page 9


 241 0040 D4ED020A 		vldr.32	s1, [r4, #8]
 242 0044 37EE800A 		vadd.f32	s0, s15, s0
 243 0048 2F48     		ldr	r0, .L33+32
 244 004a FFF7FEFF 		bl	PIDCalculate
 245              	.LVL2:
 132:application/chassis/chassis.c ****     ff_vy = (y_pid_instance.Err > 0.3 ? 0.1 * chassis_cmd_recv.y : 0);
 246              		.loc 1 132 5 is_stmt 1 view .LVU57
 132:application/chassis/chassis.c ****     ff_vy = (y_pid_instance.Err > 0.3 ? 0.1 * chassis_cmd_recv.y : 0);
 247              		.loc 1 132 28 is_stmt 0 view .LVU58
 248 004e 96ED0D7A 		vldr.32	s14, [r6, #52]
 249 0052 B7EEC77A 		vcvt.f64.f32	d7, s14
 132:application/chassis/chassis.c ****     ff_vy = (y_pid_instance.Err > 0.3 ? 0.1 * chassis_cmd_recv.y : 0);
 250              		.loc 1 132 66 view .LVU59
 251 0056 9FED246B 		vldr.64	d6, .L33
 252 005a B4EEC67B 		vcmpe.f64	d7, d6
 253 005e F1EE10FA 		vmrs	APSR_nzcv, FPSCR
 254 0062 3BDD     		ble	.L30
 132:application/chassis/chassis.c ****     ff_vy = (y_pid_instance.Err > 0.3 ? 0.1 * chassis_cmd_recv.y : 0);
 255              		.loc 1 132 63 discriminator 1 view .LVU60
 256 0064 94ED007A 		vldr.32	s14, [r4]
 257 0068 B7EEC77A 		vcvt.f64.f32	d7, s14
 132:application/chassis/chassis.c ****     ff_vy = (y_pid_instance.Err > 0.3 ? 0.1 * chassis_cmd_recv.y : 0);
 258              		.loc 1 132 45 discriminator 1 view .LVU61
 259 006c 9FED206B 		vldr.64	d6, .L33+8
 260 0070 27EE067B 		vmul.f64	d7, d7, d6
 132:application/chassis/chassis.c ****     ff_vy = (y_pid_instance.Err > 0.3 ? 0.1 * chassis_cmd_recv.y : 0);
 261              		.loc 1 132 66 discriminator 1 view .LVU62
 262 0074 F7EEC76B 		vcvt.f32.f64	s13, d7
 263              	.L22:
 132:application/chassis/chassis.c ****     ff_vy = (y_pid_instance.Err > 0.3 ? 0.1 * chassis_cmd_recv.y : 0);
 264              		.loc 1 132 11 discriminator 4 view .LVU63
 265 0078 244B     		ldr	r3, .L33+36
 266 007a C3ED006A 		vstr.32	s13, [r3]
 133:application/chassis/chassis.c ****     // ff_w = 0.01 * chassis_cmd_recv.heading;
 267              		.loc 1 133 5 is_stmt 1 discriminator 4 view .LVU64
 133:application/chassis/chassis.c ****     // ff_w = 0.01 * chassis_cmd_recv.heading;
 268              		.loc 1 133 28 is_stmt 0 discriminator 4 view .LVU65
 269 007e 214B     		ldr	r3, .L33+28
 270 0080 93ED0D7A 		vldr.32	s14, [r3, #52]
 271 0084 B7EEC77A 		vcvt.f64.f32	d7, s14
 133:application/chassis/chassis.c ****     // ff_w = 0.01 * chassis_cmd_recv.heading;
 272              		.loc 1 133 66 discriminator 4 view .LVU66
 273 0088 9FED175B 		vldr.64	d5, .L33
 274 008c B4EEC57B 		vcmpe.f64	d7, d5
 275 0090 F1EE10FA 		vmrs	APSR_nzcv, FPSCR
 276 0094 25DD     		ble	.L31
 133:application/chassis/chassis.c ****     // ff_w = 0.01 * chassis_cmd_recv.heading;
 277              		.loc 1 133 63 discriminator 1 view .LVU67
 278 0096 194B     		ldr	r3, .L33+20
 279 0098 93ED017A 		vldr.32	s14, [r3, #4]
 280 009c B7EEC77A 		vcvt.f64.f32	d7, s14
 133:application/chassis/chassis.c ****     // ff_w = 0.01 * chassis_cmd_recv.heading;
 281              		.loc 1 133 45 discriminator 1 view .LVU68
 282 00a0 9FED135B 		vldr.64	d5, .L33+8
 283 00a4 27EE057B 		vmul.f64	d7, d7, d5
 133:application/chassis/chassis.c ****     // ff_w = 0.01 * chassis_cmd_recv.heading;
 284              		.loc 1 133 66 discriminator 1 view .LVU69
ARM GAS  C:\Users\blue\AppData\Local\Temp\ccZsplOl.s 			page 10


 285 00a8 B7EEC77B 		vcvt.f32.f64	s14, d7
 286              	.L24:
 133:application/chassis/chassis.c ****     // ff_w = 0.01 * chassis_cmd_recv.heading;
 287              		.loc 1 133 11 discriminator 4 view .LVU70
 288 00ac 184B     		ldr	r3, .L33+40
 289 00ae 83ED007A 		vstr.32	s14, [r3]
 136:application/chassis/chassis.c ****     chassis_vy = y_pid_instance.Output + ff_vy; //
 290              		.loc 1 136 5 is_stmt 1 discriminator 4 view .LVU71
 136:application/chassis/chassis.c ****     chassis_vy = y_pid_instance.Output + ff_vy; //
 291              		.loc 1 136 32 is_stmt 0 discriminator 4 view .LVU72
 292 00b2 134B     		ldr	r3, .L33+24
 293 00b4 D3ED147A 		vldr.32	s15, [r3, #80]
 136:application/chassis/chassis.c ****     chassis_vy = y_pid_instance.Output + ff_vy; //
 294              		.loc 1 136 40 discriminator 4 view .LVU73
 295 00b8 77EEA66A 		vadd.f32	s13, s15, s13
 136:application/chassis/chassis.c ****     chassis_vy = y_pid_instance.Output + ff_vy; //
 296              		.loc 1 136 16 discriminator 4 view .LVU74
 297 00bc 154B     		ldr	r3, .L33+44
 298 00be C3ED006A 		vstr.32	s13, [r3]
 137:application/chassis/chassis.c ****     chassis_w = heading_pid_instance.Output;
 299              		.loc 1 137 5 is_stmt 1 discriminator 4 view .LVU75
 137:application/chassis/chassis.c ****     chassis_w = heading_pid_instance.Output;
 300              		.loc 1 137 32 is_stmt 0 discriminator 4 view .LVU76
 301 00c2 104B     		ldr	r3, .L33+28
 302 00c4 D3ED147A 		vldr.32	s15, [r3, #80]
 137:application/chassis/chassis.c ****     chassis_w = heading_pid_instance.Output;
 303              		.loc 1 137 40 discriminator 4 view .LVU77
 304 00c8 37EE877A 		vadd.f32	s14, s15, s14
 137:application/chassis/chassis.c ****     chassis_w = heading_pid_instance.Output;
 305              		.loc 1 137 16 discriminator 4 view .LVU78
 306 00cc 124B     		ldr	r3, .L33+48
 307 00ce 83ED007A 		vstr.32	s14, [r3]
 138:application/chassis/chassis.c **** }
 308              		.loc 1 138 5 is_stmt 1 discriminator 4 view .LVU79
 138:application/chassis/chassis.c **** }
 309              		.loc 1 138 37 is_stmt 0 discriminator 4 view .LVU80
 310 00d2 0D4B     		ldr	r3, .L33+32
 311 00d4 1A6D     		ldr	r2, [r3, #80]	@ float
 138:application/chassis/chassis.c **** }
 312              		.loc 1 138 15 discriminator 4 view .LVU81
 313 00d6 114B     		ldr	r3, .L33+52
 314 00d8 1A60     		str	r2, [r3]	@ float
 139:application/chassis/chassis.c **** 
 315              		.loc 1 139 1 discriminator 4 view .LVU82
 316 00da 70BD     		pop	{r4, r5, r6, pc}
 317              	.L30:
 132:application/chassis/chassis.c ****     ff_vy = (y_pid_instance.Err > 0.3 ? 0.1 * chassis_cmd_recv.y : 0);
 318              		.loc 1 132 66 view .LVU83
 319 00dc DFED106A 		vldr.32	s13, .L33+56
 320 00e0 CAE7     		b	.L22
 321              	.L31:
 133:application/chassis/chassis.c ****     // ff_w = 0.01 * chassis_cmd_recv.heading;
 322              		.loc 1 133 66 view .LVU84
 323 00e2 9FED0F7A 		vldr.32	s14, .L33+56
 324 00e6 E1E7     		b	.L24
 325              	.L34:
 326              		.align	3
ARM GAS  C:\Users\blue\AppData\Local\Temp\ccZsplOl.s 			page 11


 327              	.L33:
 328 00e8 33333333 		.word	858993459
 329 00ec 3333D33F 		.word	1070805811
 330 00f0 9A999999 		.word	-1717986918
 331 00f4 9999B93F 		.word	1069128089
 332 00f8 00000000 		.word	.LANCHOR11
 333 00fc 00000000 		.word	.LANCHOR12
 334 0100 00000000 		.word	.LANCHOR8
 335 0104 00000000 		.word	.LANCHOR9
 336 0108 00000000 		.word	.LANCHOR10
 337 010c 00000000 		.word	.LANCHOR13
 338 0110 00000000 		.word	.LANCHOR14
 339 0114 00000000 		.word	.LANCHOR0
 340 0118 00000000 		.word	.LANCHOR1
 341 011c 00000000 		.word	.LANCHOR2
 342 0120 00000000 		.word	0
 343              		.cfi_endproc
 344              	.LFE186:
 346              		.section	.text.CoordinateTransform,"ax",%progbits
 347              		.align	1
 348              		.syntax unified
 349              		.thumb
 350              		.thumb_func
 352              	CoordinateTransform:
 353              	.LFB187:
 145:application/chassis/chassis.c ****     // Ê†πÊçÆËßíÂ∫¶offsetÂ∞ÜÊéßÂà∂ÈáèÊò†Â∞ÑÂà∞Â∫ïÁõòÂùêÊ†áÁ≥ª‰∏ä
 354              		.loc 1 145 1 is_stmt 1 view -0
 355              		.cfi_startproc
 356              		@ args = 0, pretend = 0, frame = 0
 357              		@ frame_needed = 0, uses_anonymous_args = 0
 358 0000 38B5     		push	{r3, r4, r5, lr}
 359              	.LCFI1:
 360              		.cfi_def_cfa_offset 16
 361              		.cfi_offset 3, -16
 362              		.cfi_offset 4, -12
 363              		.cfi_offset 5, -8
 364              		.cfi_offset 14, -4
 365 0002 2DED028B 		vpush.64	{d8}
 366              	.LCFI2:
 367              		.cfi_def_cfa_offset 24
 368              		.cfi_offset 80, -24
 369              		.cfi_offset 81, -20
 148:application/chassis/chassis.c ****     cos_theta = arm_cos_f32(ops_data->OPS_heading * DEGREE_2_RAD);
 370              		.loc 1 148 5 view .LVU86
 149:application/chassis/chassis.c ****     sin_theta = arm_sin_f32(ops_data->OPS_heading * DEGREE_2_RAD);
 371              		.loc 1 149 5 view .LVU87
 149:application/chassis/chassis.c ****     sin_theta = arm_sin_f32(ops_data->OPS_heading * DEGREE_2_RAD);
 372              		.loc 1 149 37 is_stmt 0 view .LVU88
 373 0006 194D     		ldr	r5, .L37
 374 0008 2B68     		ldr	r3, [r5]
 375 000a 93ED020A 		vldr.32	s0, [r3, #8]
 149:application/chassis/chassis.c ****     sin_theta = arm_sin_f32(ops_data->OPS_heading * DEGREE_2_RAD);
 376              		.loc 1 149 17 view .LVU89
 377 000e 9FED188A 		vldr.32	s16, .L37+4
 378 0012 20EE080A 		vmul.f32	s0, s0, s16
 379 0016 FFF7FEFF 		bl	arm_cos_f32
 380              	.LVL3:
ARM GAS  C:\Users\blue\AppData\Local\Temp\ccZsplOl.s 			page 12


 149:application/chassis/chassis.c ****     sin_theta = arm_sin_f32(ops_data->OPS_heading * DEGREE_2_RAD);
 381              		.loc 1 149 15 view .LVU90
 382 001a 164C     		ldr	r4, .L37+8
 383 001c 84ED000A 		vstr.32	s0, [r4]
 150:application/chassis/chassis.c ****     chassis_vx = chassis_vx * cos_theta - chassis_vy * sin_theta;
 384              		.loc 1 150 5 is_stmt 1 view .LVU91
 150:application/chassis/chassis.c ****     chassis_vx = chassis_vx * cos_theta - chassis_vy * sin_theta;
 385              		.loc 1 150 37 is_stmt 0 view .LVU92
 386 0020 2B68     		ldr	r3, [r5]
 387 0022 93ED020A 		vldr.32	s0, [r3, #8]
 150:application/chassis/chassis.c ****     chassis_vx = chassis_vx * cos_theta - chassis_vy * sin_theta;
 388              		.loc 1 150 17 view .LVU93
 389 0026 20EE080A 		vmul.f32	s0, s0, s16
 390 002a FFF7FEFF 		bl	arm_sin_f32
 391              	.LVL4:
 150:application/chassis/chassis.c ****     chassis_vx = chassis_vx * cos_theta - chassis_vy * sin_theta;
 392              		.loc 1 150 15 view .LVU94
 393 002e 124B     		ldr	r3, .L37+12
 394 0030 83ED000A 		vstr.32	s0, [r3]
 151:application/chassis/chassis.c ****     chassis_vy = chassis_vx * sin_theta + chassis_vy * cos_theta;
 395              		.loc 1 151 5 is_stmt 1 view .LVU95
 151:application/chassis/chassis.c ****     chassis_vy = chassis_vx * sin_theta + chassis_vy * cos_theta;
 396              		.loc 1 151 29 is_stmt 0 view .LVU96
 397 0034 94ED007A 		vldr.32	s14, [r4]
 398 0038 104A     		ldr	r2, .L37+16
 399 003a D2ED007A 		vldr.32	s15, [r2]
 400 003e 67EE277A 		vmul.f32	s15, s14, s15
 151:application/chassis/chassis.c ****     chassis_vy = chassis_vx * sin_theta + chassis_vy * cos_theta;
 401              		.loc 1 151 54 view .LVU97
 402 0042 0F4B     		ldr	r3, .L37+20
 403 0044 D3ED006A 		vldr.32	s13, [r3]
 404 0048 20EE266A 		vmul.f32	s12, s0, s13
 151:application/chassis/chassis.c ****     chassis_vy = chassis_vx * sin_theta + chassis_vy * cos_theta;
 405              		.loc 1 151 41 view .LVU98
 406 004c 77EEC67A 		vsub.f32	s15, s15, s12
 151:application/chassis/chassis.c ****     chassis_vy = chassis_vx * sin_theta + chassis_vy * cos_theta;
 407              		.loc 1 151 16 view .LVU99
 408 0050 C2ED007A 		vstr.32	s15, [r2]
 152:application/chassis/chassis.c **** }
 409              		.loc 1 152 5 is_stmt 1 view .LVU100
 152:application/chassis/chassis.c **** }
 410              		.loc 1 152 29 is_stmt 0 view .LVU101
 411 0054 20EE270A 		vmul.f32	s0, s0, s15
 152:application/chassis/chassis.c **** }
 412              		.loc 1 152 54 view .LVU102
 413 0058 27EE267A 		vmul.f32	s14, s14, s13
 152:application/chassis/chassis.c **** }
 414              		.loc 1 152 41 view .LVU103
 415 005c 30EE070A 		vadd.f32	s0, s0, s14
 152:application/chassis/chassis.c **** }
 416              		.loc 1 152 16 view .LVU104
 417 0060 83ED000A 		vstr.32	s0, [r3]
 153:application/chassis/chassis.c **** 
 418              		.loc 1 153 1 view .LVU105
 419 0064 BDEC028B 		vldm	sp!, {d8}
 420              	.LCFI3:
 421              		.cfi_restore 80
ARM GAS  C:\Users\blue\AppData\Local\Temp\ccZsplOl.s 			page 13


 422              		.cfi_restore 81
 423              		.cfi_def_cfa_offset 16
 424 0068 38BD     		pop	{r3, r4, r5, pc}
 425              	.L38:
 426 006a 00BF     		.align	2
 427              	.L37:
 428 006c 00000000 		.word	.LANCHOR11
 429 0070 35FA8E3C 		.word	1016003125
 430 0074 00000000 		.word	.LANCHOR15
 431 0078 00000000 		.word	.LANCHOR16
 432 007c 00000000 		.word	.LANCHOR0
 433 0080 00000000 		.word	.LANCHOR1
 434              		.cfi_endproc
 435              	.LFE187:
 437              		.section	.text.LimitChassisOutput,"ax",%progbits
 438              		.align	1
 439              		.syntax unified
 440              		.thumb
 441              		.thumb_func
 443              	LimitChassisOutput:
 444              	.LFB189:
 181:application/chassis/chassis.c ****     // ÂäüÁéáÈôêÂà∂ÂæÖÊ∑ªÂä†}
 445              		.loc 1 181 1 is_stmt 1 view -0
 446              		.cfi_startproc
 447              		@ args = 0, pretend = 0, frame = 0
 448              		@ frame_needed = 0, uses_anonymous_args = 0
 449 0000 08B5     		push	{r3, lr}
 450              	.LCFI4:
 451              		.cfi_def_cfa_offset 8
 452              		.cfi_offset 3, -8
 453              		.cfi_offset 14, -4
 187:application/chassis/chassis.c ****     DJIMotorSetRef(motor_rf, vt_rf);
 454              		.loc 1 187 5 view .LVU107
 455 0002 0E4B     		ldr	r3, .L41
 456 0004 93ED000A 		vldr.32	s0, [r3]
 457 0008 0D4B     		ldr	r3, .L41+4
 458 000a 1868     		ldr	r0, [r3]
 459 000c FFF7FEFF 		bl	DJIMotorSetRef
 460              	.LVL5:
 188:application/chassis/chassis.c ****     DJIMotorSetRef(motor_lb, vt_lb);
 461              		.loc 1 188 5 view .LVU108
 462 0010 0C4B     		ldr	r3, .L41+8
 463 0012 93ED000A 		vldr.32	s0, [r3]
 464 0016 0C4B     		ldr	r3, .L41+12
 465 0018 1868     		ldr	r0, [r3]
 466 001a FFF7FEFF 		bl	DJIMotorSetRef
 467              	.LVL6:
 189:application/chassis/chassis.c ****     DJIMotorSetRef(motor_rb, vt_rb);
 468              		.loc 1 189 5 view .LVU109
 469 001e 0B4B     		ldr	r3, .L41+16
 470 0020 93ED000A 		vldr.32	s0, [r3]
 471 0024 0A4B     		ldr	r3, .L41+20
 472 0026 1868     		ldr	r0, [r3]
 473 0028 FFF7FEFF 		bl	DJIMotorSetRef
 474              	.LVL7:
 190:application/chassis/chassis.c **** }
 475              		.loc 1 190 5 view .LVU110
ARM GAS  C:\Users\blue\AppData\Local\Temp\ccZsplOl.s 			page 14


 476 002c 094B     		ldr	r3, .L41+24
 477 002e 93ED000A 		vldr.32	s0, [r3]
 478 0032 094B     		ldr	r3, .L41+28
 479 0034 1868     		ldr	r0, [r3]
 480 0036 FFF7FEFF 		bl	DJIMotorSetRef
 481              	.LVL8:
 191:application/chassis/chassis.c **** 
 482              		.loc 1 191 1 is_stmt 0 view .LVU111
 483 003a 08BD     		pop	{r3, pc}
 484              	.L42:
 485              		.align	2
 486              	.L41:
 487 003c 00000000 		.word	.LANCHOR3
 488 0040 00000000 		.word	.LANCHOR17
 489 0044 00000000 		.word	.LANCHOR4
 490 0048 00000000 		.word	.LANCHOR18
 491 004c 00000000 		.word	.LANCHOR5
 492 0050 00000000 		.word	.LANCHOR19
 493 0054 00000000 		.word	.LANCHOR6
 494 0058 00000000 		.word	.LANCHOR20
 495              		.cfi_endproc
 496              	.LFE189:
 498              		.section	.rodata.ChassisInit.str1.4,"aMS",%progbits,1
 499              		.align	2
 500              	.LC0:
 501 0000 63686173 		.ascii	"chassis_cmd\000"
 501      7369735F 
 501      636D6400 
 502              		.align	2
 503              	.LC1:
 504 000c 63686173 		.ascii	"chassis_feed\000"
 504      7369735F 
 504      66656564 
 504      00
 505              		.section	.text.ChassisInit,"ax",%progbits
 506              		.align	1
 507              		.global	ChassisInit
 508              		.syntax unified
 509              		.thumb
 510              		.thumb_func
 512              	ChassisInit:
 513              	.LFB185:
  42:application/chassis/chassis.c ****     /*----------------data-------------------*/
 514              		.loc 1 42 1 is_stmt 1 view -0
 515              		.cfi_startproc
 516              		@ args = 0, pretend = 0, frame = 264
 517              		@ frame_needed = 0, uses_anonymous_args = 0
 518 0000 2DE9F041 		push	{r4, r5, r6, r7, r8, lr}
 519              	.LCFI5:
 520              		.cfi_def_cfa_offset 24
 521              		.cfi_offset 4, -24
 522              		.cfi_offset 5, -20
 523              		.cfi_offset 6, -16
 524              		.cfi_offset 7, -12
 525              		.cfi_offset 8, -8
 526              		.cfi_offset 14, -4
 527 0004 C2B0     		sub	sp, sp, #264
ARM GAS  C:\Users\blue\AppData\Local\Temp\ccZsplOl.s 			page 15


 528              	.LCFI6:
 529              		.cfi_def_cfa_offset 288
  44:application/chassis/chassis.c ****     /*---------------x, y and heading loop--------------*/
 530              		.loc 1 44 5 view .LVU113
  44:application/chassis/chassis.c ****     /*---------------x, y and heading loop--------------*/
 531              		.loc 1 44 16 is_stmt 0 view .LVU114
 532 0006 3C48     		ldr	r0, .L45
 533 0008 FFF7FEFF 		bl	Ops_Init
 534              	.LVL9:
  44:application/chassis/chassis.c ****     /*---------------x, y and heading loop--------------*/
 535              		.loc 1 44 14 view .LVU115
 536 000c 3B4B     		ldr	r3, .L45+4
 537 000e 1860     		str	r0, [r3]
  46:application/chassis/chassis.c ****         {
 538              		.loc 1 46 5 is_stmt 1 view .LVU116
  46:application/chassis/chassis.c ****         {
 539              		.loc 1 46 23 is_stmt 0 view .LVU117
 540 0010 4FF02C08 		mov	r8, #44
 541 0014 4246     		mov	r2, r8
 542 0016 0021     		movs	r1, #0
 543 0018 37A8     		add	r0, sp, #220
 544 001a FFF7FEFF 		bl	memset
 545              	.LVL10:
 546 001e 4FF07E55 		mov	r5, #1065353216
 547 0022 3795     		str	r5, [sp, #220]	@ float
 548 0024 364E     		ldr	r6, .L45+8
 549 0026 3A96     		str	r6, [sp, #232]	@ float
 550 0028 0724     		movs	r4, #7
 551 002a 8DF8F040 		strb	r4, [sp, #240]
 552 002e 354F     		ldr	r7, .L45+12
 553 0030 3D97     		str	r7, [sp, #244]	@ float
  55:application/chassis/chassis.c ****         {
 554              		.loc 1 55 5 is_stmt 1 view .LVU118
  55:application/chassis/chassis.c ****         {
 555              		.loc 1 55 23 is_stmt 0 view .LVU119
 556 0032 4246     		mov	r2, r8
 557 0034 0021     		movs	r1, #0
 558 0036 2CA8     		add	r0, sp, #176
 559 0038 FFF7FEFF 		bl	memset
 560              	.LVL11:
 561 003c 2C95     		str	r5, [sp, #176]	@ float
 562 003e 324B     		ldr	r3, .L45+16
 563 0040 2F93     		str	r3, [sp, #188]	@ float
 564 0042 8DF8C440 		strb	r4, [sp, #196]
 565 0046 3297     		str	r7, [sp, #200]	@ float
  64:application/chassis/chassis.c ****     PIDInit(&y_pid_instance, &xy_pid_init_config);
 566              		.loc 1 64 5 is_stmt 1 view .LVU120
 567 0048 37A9     		add	r1, sp, #220
 568 004a 3048     		ldr	r0, .L45+20
 569 004c FFF7FEFF 		bl	PIDInit
 570              	.LVL12:
  65:application/chassis/chassis.c ****     PIDInit(&heading_pid_instance, &heading_pid_init_config);
 571              		.loc 1 65 5 view .LVU121
 572 0050 37A9     		add	r1, sp, #220
 573 0052 2F48     		ldr	r0, .L45+24
 574 0054 FFF7FEFF 		bl	PIDInit
 575              	.LVL13:
ARM GAS  C:\Users\blue\AppData\Local\Temp\ccZsplOl.s 			page 16


  66:application/chassis/chassis.c ****     /*---------------speed and current loops--------------*/
 576              		.loc 1 66 5 view .LVU122
 577 0058 2CA9     		add	r1, sp, #176
 578 005a 2E48     		ldr	r0, .L45+28
 579 005c FFF7FEFF 		bl	PIDInit
 580              	.LVL14:
  69:application/chassis/chassis.c ****         // the initialization from module to bsp_
 581              		.loc 1 69 5 view .LVU123
  69:application/chassis/chassis.c ****         // the initialization from module to bsp_
 582              		.loc 1 69 25 is_stmt 0 view .LVU124
 583 0060 B022     		movs	r2, #176
 584 0062 0021     		movs	r1, #0
 585 0064 6846     		mov	r0, sp
 586 0066 FFF7FEFF 		bl	memset
 587              	.LVL15:
 588 006a 0495     		str	r5, [sp, #16]	@ float
 589 006c 0796     		str	r6, [sp, #28]	@ float
 590 006e 8DF82440 		strb	r4, [sp, #36]
 591 0072 294B     		ldr	r3, .L45+32
 592 0074 0A93     		str	r3, [sp, #40]	@ float
 593 0076 0F95     		str	r5, [sp, #60]	@ float
 594 0078 284A     		ldr	r2, .L45+36
 595 007a 1292     		str	r2, [sp, #72]	@ float
 596 007c 8DF85040 		strb	r4, [sp, #80]
 597 0080 1593     		str	r3, [sp, #84]	@ float
 598 0082 0225     		movs	r5, #2
 599 0084 8DF89450 		strb	r5, [sp, #148]
 600 0088 0326     		movs	r6, #3
 601 008a 8DF89560 		strb	r6, [sp, #149]
 602 008e 8DF89B60 		strb	r6, [sp, #155]
 603 0092 234B     		ldr	r3, .L45+40
 604 0094 2793     		str	r3, [sp, #156]
  99:application/chassis/chassis.c ****     chassis_motor_config.controller_setting_init_config.motor_reverse_flag = MOTOR_DIRECTION_REVERS
 605              		.loc 1 99 5 is_stmt 1 view .LVU125
  99:application/chassis/chassis.c ****     chassis_motor_config.controller_setting_init_config.motor_reverse_flag = MOTOR_DIRECTION_REVERS
 606              		.loc 1 99 48 is_stmt 0 view .LVU126
 607 0096 0124     		movs	r4, #1
 608 0098 2894     		str	r4, [sp, #160]
 100:application/chassis/chassis.c ****     motor_lf = DJIMotorInit(&chassis_motor_config);
 609              		.loc 1 100 5 is_stmt 1 view .LVU127
 100:application/chassis/chassis.c ****     motor_lf = DJIMotorInit(&chassis_motor_config);
 610              		.loc 1 100 76 is_stmt 0 view .LVU128
 611 009a 8DF89640 		strb	r4, [sp, #150]
 101:application/chassis/chassis.c **** 
 612              		.loc 1 101 5 is_stmt 1 view .LVU129
 101:application/chassis/chassis.c **** 
 613              		.loc 1 101 16 is_stmt 0 view .LVU130
 614 009e 6846     		mov	r0, sp
 615 00a0 FFF7FEFF 		bl	DJIMotorInit
 616              	.LVL16:
 101:application/chassis/chassis.c **** 
 617              		.loc 1 101 14 view .LVU131
 618 00a4 1F4B     		ldr	r3, .L45+44
 619 00a6 1860     		str	r0, [r3]
 103:application/chassis/chassis.c ****     chassis_motor_config.controller_setting_init_config.motor_reverse_flag = MOTOR_DIRECTION_REVERS
 620              		.loc 1 103 5 is_stmt 1 view .LVU132
 103:application/chassis/chassis.c ****     chassis_motor_config.controller_setting_init_config.motor_reverse_flag = MOTOR_DIRECTION_REVERS
ARM GAS  C:\Users\blue\AppData\Local\Temp\ccZsplOl.s 			page 17


 621              		.loc 1 103 48 is_stmt 0 view .LVU133
 622 00a8 2895     		str	r5, [sp, #160]
 104:application/chassis/chassis.c ****     motor_rf = DJIMotorInit(&chassis_motor_config);
 623              		.loc 1 104 5 is_stmt 1 view .LVU134
 104:application/chassis/chassis.c ****     motor_rf = DJIMotorInit(&chassis_motor_config);
 624              		.loc 1 104 76 is_stmt 0 view .LVU135
 625 00aa 8DF89640 		strb	r4, [sp, #150]
 105:application/chassis/chassis.c **** 
 626              		.loc 1 105 5 is_stmt 1 view .LVU136
 105:application/chassis/chassis.c **** 
 627              		.loc 1 105 16 is_stmt 0 view .LVU137
 628 00ae 6846     		mov	r0, sp
 629 00b0 FFF7FEFF 		bl	DJIMotorInit
 630              	.LVL17:
 105:application/chassis/chassis.c **** 
 631              		.loc 1 105 14 view .LVU138
 632 00b4 1C4B     		ldr	r3, .L45+48
 633 00b6 1860     		str	r0, [r3]
 107:application/chassis/chassis.c ****     chassis_motor_config.controller_setting_init_config.motor_reverse_flag = MOTOR_DIRECTION_REVERS
 634              		.loc 1 107 5 is_stmt 1 view .LVU139
 107:application/chassis/chassis.c ****     chassis_motor_config.controller_setting_init_config.motor_reverse_flag = MOTOR_DIRECTION_REVERS
 635              		.loc 1 107 48 is_stmt 0 view .LVU140
 636 00b8 0423     		movs	r3, #4
 637 00ba 2893     		str	r3, [sp, #160]
 108:application/chassis/chassis.c ****     motor_lb = DJIMotorInit(&chassis_motor_config);
 638              		.loc 1 108 5 is_stmt 1 view .LVU141
 108:application/chassis/chassis.c ****     motor_lb = DJIMotorInit(&chassis_motor_config);
 639              		.loc 1 108 76 is_stmt 0 view .LVU142
 640 00bc 8DF89640 		strb	r4, [sp, #150]
 109:application/chassis/chassis.c **** 
 641              		.loc 1 109 5 is_stmt 1 view .LVU143
 109:application/chassis/chassis.c **** 
 642              		.loc 1 109 16 is_stmt 0 view .LVU144
 643 00c0 6846     		mov	r0, sp
 644 00c2 FFF7FEFF 		bl	DJIMotorInit
 645              	.LVL18:
 109:application/chassis/chassis.c **** 
 646              		.loc 1 109 14 view .LVU145
 647 00c6 194B     		ldr	r3, .L45+52
 648 00c8 1860     		str	r0, [r3]
 111:application/chassis/chassis.c ****     chassis_motor_config.controller_setting_init_config.motor_reverse_flag = MOTOR_DIRECTION_REVERS
 649              		.loc 1 111 5 is_stmt 1 view .LVU146
 111:application/chassis/chassis.c ****     chassis_motor_config.controller_setting_init_config.motor_reverse_flag = MOTOR_DIRECTION_REVERS
 650              		.loc 1 111 48 is_stmt 0 view .LVU147
 651 00ca 2896     		str	r6, [sp, #160]
 112:application/chassis/chassis.c ****     motor_rb = DJIMotorInit(&chassis_motor_config);
 652              		.loc 1 112 5 is_stmt 1 view .LVU148
 112:application/chassis/chassis.c ****     motor_rb = DJIMotorInit(&chassis_motor_config);
 653              		.loc 1 112 76 is_stmt 0 view .LVU149
 654 00cc 8DF89640 		strb	r4, [sp, #150]
 113:application/chassis/chassis.c **** 
 655              		.loc 1 113 5 is_stmt 1 view .LVU150
 113:application/chassis/chassis.c **** 
 656              		.loc 1 113 16 is_stmt 0 view .LVU151
 657 00d0 6846     		mov	r0, sp
 658 00d2 FFF7FEFF 		bl	DJIMotorInit
 659              	.LVL19:
ARM GAS  C:\Users\blue\AppData\Local\Temp\ccZsplOl.s 			page 18


 113:application/chassis/chassis.c **** 
 660              		.loc 1 113 14 view .LVU152
 661 00d6 164B     		ldr	r3, .L45+56
 662 00d8 1860     		str	r0, [r3]
 116:application/chassis/chassis.c ****     chassis_pub = PubRegister("chassis_feed", sizeof(Chassis_Upload_Data_s));
 663              		.loc 1 116 5 is_stmt 1 view .LVU153
 116:application/chassis/chassis.c ****     chassis_pub = PubRegister("chassis_feed", sizeof(Chassis_Upload_Data_s));
 664              		.loc 1 116 19 is_stmt 0 view .LVU154
 665 00da 1521     		movs	r1, #21
 666 00dc 1548     		ldr	r0, .L45+60
 667 00de FFF7FEFF 		bl	SubRegister
 668              	.LVL20:
 116:application/chassis/chassis.c ****     chassis_pub = PubRegister("chassis_feed", sizeof(Chassis_Upload_Data_s));
 669              		.loc 1 116 17 view .LVU155
 670 00e2 154B     		ldr	r3, .L45+64
 671 00e4 1860     		str	r0, [r3]
 117:application/chassis/chassis.c **** #endif // ONE_BOARD
 672              		.loc 1 117 5 is_stmt 1 view .LVU156
 117:application/chassis/chassis.c **** #endif // ONE_BOARD
 673              		.loc 1 117 19 is_stmt 0 view .LVU157
 674 00e6 2946     		mov	r1, r5
 675 00e8 1448     		ldr	r0, .L45+68
 676 00ea FFF7FEFF 		bl	PubRegister
 677              	.LVL21:
 117:application/chassis/chassis.c **** #endif // ONE_BOARD
 678              		.loc 1 117 17 view .LVU158
 679 00ee 144B     		ldr	r3, .L45+72
 680 00f0 1860     		str	r0, [r3]
 119:application/chassis/chassis.c **** 
 681              		.loc 1 119 1 view .LVU159
 682 00f2 42B0     		add	sp, sp, #264
 683              	.LCFI7:
 684              		.cfi_def_cfa_offset 24
 685              		@ sp needed
 686 00f4 BDE8F081 		pop	{r4, r5, r6, r7, r8, pc}
 687              	.L46:
 688              		.align	2
 689              	.L45:
 690 00f8 00000000 		.word	huart6
 691 00fc 00000000 		.word	.LANCHOR11
 692 0100 00606A46 		.word	1181376512
 693 0104 0000FA43 		.word	1140457472
 694 0108 0000FA44 		.word	1157234688
 695 010c 00000000 		.word	.LANCHOR8
 696 0110 00000000 		.word	.LANCHOR9
 697 0114 00000000 		.word	.LANCHOR10
 698 0118 00803B45 		.word	1161527296
 699 011c 00803B46 		.word	1178304512
 700 0120 00000000 		.word	hfdcan1
 701 0124 00000000 		.word	.LANCHOR17
 702 0128 00000000 		.word	.LANCHOR18
 703 012c 00000000 		.word	.LANCHOR19
 704 0130 00000000 		.word	.LANCHOR20
 705 0134 00000000 		.word	.LC0
 706 0138 00000000 		.word	.LANCHOR21
 707 013c 0C000000 		.word	.LC1
 708 0140 00000000 		.word	.LANCHOR22
ARM GAS  C:\Users\blue\AppData\Local\Temp\ccZsplOl.s 			page 19


 709              		.cfi_endproc
 710              	.LFE185:
 712              		.section	.text.ChassisTask,"ax",%progbits
 713              		.align	1
 714              		.global	ChassisTask
 715              		.syntax unified
 716              		.thumb
 717              		.thumb_func
 719              	ChassisTask:
 720              	.LFB191:
 210:application/chassis/chassis.c **** /* Êú∫Âô®‰∫∫Â∫ïÁõòÊéßÂà∂Ê†∏ÂøÉ‰ªªÂä° */
 211:application/chassis/chassis.c **** void ChassisTask()
 212:application/chassis/chassis.c **** {
 721              		.loc 1 212 1 is_stmt 1 view -0
 722              		.cfi_startproc
 723              		@ args = 0, pretend = 0, frame = 0
 724              		@ frame_needed = 0, uses_anonymous_args = 0
 725 0000 10B5     		push	{r4, lr}
 726              	.LCFI8:
 727              		.cfi_def_cfa_offset 8
 728              		.cfi_offset 4, -8
 729              		.cfi_offset 14, -4
 213:application/chassis/chassis.c ****     // ÂêéÁª≠Â¢ûÂä†Ê≤°Êî∂Âà∞Ê∂àÊÅØÁöÑÂ§ÑÁêÜ(ÂèåÊùøÁöÑÊÉÖÂÜµ)
 214:application/chassis/chassis.c ****     // Ëé∑ÂèñÊñ∞ÁöÑÊéßÂà∂‰ø°ÊÅØ
 215:application/chassis/chassis.c **** #ifdef ONE_BOARD
 216:application/chassis/chassis.c ****     SubGetMessage(chassis_sub, &chassis_cmd_recv);
 730              		.loc 1 216 5 view .LVU161
 731 0002 2B4C     		ldr	r4, .L52
 732 0004 2146     		mov	r1, r4
 733 0006 2B4B     		ldr	r3, .L52+4
 734 0008 1868     		ldr	r0, [r3]
 735 000a FFF7FEFF 		bl	SubGetMessage
 736              	.LVL22:
 217:application/chassis/chassis.c **** #endif
 218:application/chassis/chassis.c **** #ifdef CHASSIS_BOARD
 219:application/chassis/chassis.c ****     chassis_cmd_recv = *(Chassis_Ctrl_Cmd_s *)CANCommGet(chasiss_can_comm);
 220:application/chassis/chassis.c **** #endif // CHASSIS_BOARD
 221:application/chassis/chassis.c **** 
 222:application/chassis/chassis.c ****     if (chassis_cmd_recv.chassis_mode == CHASSIS_ZERO_FORCE || !ops_data->OPS_Init_Flag)
 737              		.loc 1 222 5 view .LVU162
 738              		.loc 1 222 25 is_stmt 0 view .LVU163
 739 000e 237C     		ldrb	r3, [r4, #16]	@ zero_extendqisi2
 740              		.loc 1 222 8 view .LVU164
 741 0010 23B1     		cbz	r3, .L48
 742              		.loc 1 222 73 discriminator 1 view .LVU165
 743 0012 294B     		ldr	r3, .L52+8
 744 0014 1B68     		ldr	r3, [r3]
 745 0016 1B7C     		ldrb	r3, [r3, #16]	@ zero_extendqisi2
 746              		.loc 1 222 61 discriminator 1 view .LVU166
 747 0018 002B     		cmp	r3, #0
 748 001a 38D1     		bne	.L49
 749              	.L48:
 223:application/chassis/chassis.c ****     { // Â¶ÇÊûúÂá∫Áé∞ÈáçË¶ÅÊ®°ÂùóÁ¶ªÁ∫øÊàñÈÅ•ÊéßÂô®ËÆæÁΩÆ‰∏∫ÊÄ•ÂÅú,ËÆ©ÁîµÊú∫ÂÅúÊ≠¢
 224:application/chassis/chassis.c ****         DJIMotorStop(motor_lf);
 750              		.loc 1 224 9 is_stmt 1 view .LVU167
 751 001c 274B     		ldr	r3, .L52+12
 752 001e 1868     		ldr	r0, [r3]
ARM GAS  C:\Users\blue\AppData\Local\Temp\ccZsplOl.s 			page 20


 753 0020 FFF7FEFF 		bl	DJIMotorStop
 754              	.LVL23:
 225:application/chassis/chassis.c ****         DJIMotorStop(motor_rf);
 755              		.loc 1 225 9 view .LVU168
 756 0024 264B     		ldr	r3, .L52+16
 757 0026 1868     		ldr	r0, [r3]
 758 0028 FFF7FEFF 		bl	DJIMotorStop
 759              	.LVL24:
 226:application/chassis/chassis.c ****         DJIMotorStop(motor_lb);
 760              		.loc 1 226 9 view .LVU169
 761 002c 254B     		ldr	r3, .L52+20
 762 002e 1868     		ldr	r0, [r3]
 763 0030 FFF7FEFF 		bl	DJIMotorStop
 764              	.LVL25:
 227:application/chassis/chassis.c ****         DJIMotorStop(motor_rb);
 765              		.loc 1 227 9 view .LVU170
 766 0034 244B     		ldr	r3, .L52+24
 767 0036 1868     		ldr	r0, [r3]
 768 0038 FFF7FEFF 		bl	DJIMotorStop
 769              	.LVL26:
 770              	.L50:
 228:application/chassis/chassis.c ****     }
 229:application/chassis/chassis.c ****     else
 230:application/chassis/chassis.c ****     { // Ê≠£Â∏∏Â∑•‰Ωú
 231:application/chassis/chassis.c ****         DJIMotorEnable(motor_lf);
 232:application/chassis/chassis.c ****         DJIMotorEnable(motor_rf);
 233:application/chassis/chassis.c ****         DJIMotorEnable(motor_lb);
 234:application/chassis/chassis.c ****         DJIMotorEnable(motor_rb);
 235:application/chassis/chassis.c ****     }
 236:application/chassis/chassis.c **** 
 237:application/chassis/chassis.c ****     // Ê†πÊçÆÊéßÂà∂Ê®°ÂºèËÆæÂÆöÊóãËΩ¨ÈÄüÂ∫¶
 238:application/chassis/chassis.c ****     switch (chassis_cmd_recv.chassis_mode)
 771              		.loc 1 238 5 view .LVU171
 239:application/chassis/chassis.c ****     {
 240:application/chassis/chassis.c ****     case CHASSIS_NO_FOLLOW: // Â∫ïÁõò‰∏çÊóãËΩ¨,‰ΩÜÁª¥ÊåÅÂÖ®ÂêëÊú∫Âä®,‰∏ÄËà¨Áî®‰∫éË∞ÉÊï¥‰∫ëÂè∞ÂßøÊÄÅ
 241:application/chassis/chassis.c ****         // chassis_cmd_recv.wz = 0;
 242:application/chassis/chassis.c ****         break;
 243:application/chassis/chassis.c ****     case CHASSIS_FOLLOW_GIMBAL_YAW: // Ë∑üÈöè‰∫ëÂè∞,‰∏çÂçïÁã¨ËÆæÁΩÆpid,‰ª•ËØØÂ∑ÆËßíÂ∫¶Âπ≥Êñπ‰∏∫ÈÄüÂ
 244:application/chassis/chassis.c ****         // chassis_cmd_recv.wz = -1.5f * chassis_cmd_recv.offset_angle * abs(chassis_cmd_recv.offse
 245:application/chassis/chassis.c ****         break;
 246:application/chassis/chassis.c ****     case CHASSIS_ROTATE: // Ëá™Êóã,ÂêåÊó∂‰øùÊåÅÂÖ®ÂêëÊú∫Âä®;ÂΩìÂâçwzÁª¥ÊåÅÂÆöÂÄº,ÂêéÁª≠Â¢ûÂä†‰∏çËßÑ
 247:application/chassis/chassis.c ****         // chassis_cmd_recv.wz = 4000;
 248:application/chassis/chassis.c ****         break;
 249:application/chassis/chassis.c ****     case CHASSIS_VISION_REFINE:
 250:application/chassis/chassis.c ****         break;
 251:application/chassis/chassis.c ****     default:
 252:application/chassis/chassis.c ****         break;
 253:application/chassis/chassis.c ****     }
 254:application/chassis/chassis.c ****     CheckStable();
 772              		.loc 1 254 5 view .LVU172
 773 003c FFF7FEFF 		bl	CheckStable
 774              	.LVL27:
 255:application/chassis/chassis.c ****     speedCalculate();
 775              		.loc 1 255 5 view .LVU173
 776 0040 FFF7FEFF 		bl	speedCalculate
 777              	.LVL28:
 256:application/chassis/chassis.c ****     PIDCalculate(&heading_pid_instance, ops_data->OPS_heading + ops_data->OPS_ring * 360, chassis_c
ARM GAS  C:\Users\blue\AppData\Local\Temp\ccZsplOl.s 			page 21


 778              		.loc 1 256 5 view .LVU174
 779              		.loc 1 256 49 is_stmt 0 view .LVU175
 780 0044 1C4B     		ldr	r3, .L52+8
 781 0046 1B68     		ldr	r3, [r3]
 782 0048 93ED020A 		vldr.32	s0, [r3, #8]
 783              		.loc 1 256 73 view .LVU176
 784 004c DB68     		ldr	r3, [r3, #12]
 785              		.loc 1 256 84 view .LVU177
 786 004e 4FF4B472 		mov	r2, #360
 787 0052 02FB03F3 		mul	r3, r2, r3
 788              		.loc 1 256 5 view .LVU178
 789 0056 07EE903A 		vmov	s15, r3	@ int
 790 005a F8EEE77A 		vcvt.f32.s32	s15, s15
 791 005e 1B4C     		ldr	r4, .L52+28
 792 0060 134B     		ldr	r3, .L52
 793 0062 D3ED020A 		vldr.32	s1, [r3, #8]
 794 0066 37EE800A 		vadd.f32	s0, s15, s0
 795 006a 2046     		mov	r0, r4
 796 006c FFF7FEFF 		bl	PIDCalculate
 797              	.LVL29:
 257:application/chassis/chassis.c ****     chassis_w = heading_pid_instance.Output;
 798              		.loc 1 257 5 is_stmt 1 view .LVU179
 799              		.loc 1 257 37 is_stmt 0 view .LVU180
 800 0070 226D     		ldr	r2, [r4, #80]	@ float
 801              		.loc 1 257 15 view .LVU181
 802 0072 174B     		ldr	r3, .L52+32
 803 0074 1A60     		str	r2, [r3]	@ float
 258:application/chassis/chassis.c ****     CoordinateTransform();
 804              		.loc 1 258 5 is_stmt 1 view .LVU182
 805 0076 FFF7FEFF 		bl	CoordinateTransform
 806              	.LVL30:
 259:application/chassis/chassis.c ****     // ËΩ¨Êç¢ÂùêÊ†áÁ≥ªÂêéÁöÑ‰ΩçÁΩÆÁéØpidËÆ°ÁÆó
 260:application/chassis/chassis.c ****     // Ê†πÊçÆÊéßÂà∂Ê®°ÂºèËøõË°åÊ≠£ËøêÂä®Â≠¶Ëß£ÁÆó,ËÆ°ÁÆóÂ∫ïÁõòËæìÂá∫
 261:application/chassis/chassis.c ****     OmniCalculate();
 807              		.loc 1 261 5 view .LVU183
 808 007a FFF7FEFF 		bl	OmniCalculate
 809              	.LVL31:
 262:application/chassis/chassis.c **** 
 263:application/chassis/chassis.c ****     // Ê†πÊçÆË£ÅÂà§Á≥ªÁªüÁöÑÂèçÈ¶àÊï∞ÊçÆÂíåÁîµÂÆπÊï∞ÊçÆÂØπËæìÂá∫ÈôêÂπÖÂπ∂ËÆæÂÆöÈó≠ÁéØÂèÇËÄÉÂÄº
 264:application/chassis/chassis.c ****     LimitChassisOutput();
 810              		.loc 1 264 5 view .LVU184
 811 007e FFF7FEFF 		bl	LimitChassisOutput
 812              	.LVL32:
 265:application/chassis/chassis.c **** 
 266:application/chassis/chassis.c ****     // Êé®ÈÄÅÂèçÈ¶àÊ∂àÊÅØ
 267:application/chassis/chassis.c **** #ifdef ONE_BOARD
 268:application/chassis/chassis.c ****     PubPushMessage(chassis_pub, (void *)&chassis_feedback_data);
 813              		.loc 1 268 5 view .LVU185
 814 0082 1449     		ldr	r1, .L52+36
 815 0084 144B     		ldr	r3, .L52+40
 816 0086 1868     		ldr	r0, [r3]
 817 0088 FFF7FEFF 		bl	PubPushMessage
 818              	.LVL33:
 269:application/chassis/chassis.c **** #endif
 270:application/chassis/chassis.c **** #ifdef CHASSIS_BOARD
 271:application/chassis/chassis.c ****     CANCommSend(chasiss_can_comm, (void *)&chassis_feedback_data);
 272:application/chassis/chassis.c **** #endif // CHASSIS_BOARD
ARM GAS  C:\Users\blue\AppData\Local\Temp\ccZsplOl.s 			page 22


 273:application/chassis/chassis.c **** }...
 819              		.loc 1 273 1 is_stmt 0 view .LVU186
 820 008c 10BD     		pop	{r4, pc}
 821              	.L49:
 231:application/chassis/chassis.c ****         DJIMotorEnable(motor_lf);
 822              		.loc 1 231 9 is_stmt 1 view .LVU187
 823 008e 0B4B     		ldr	r3, .L52+12
 824 0090 1868     		ldr	r0, [r3]
 825 0092 FFF7FEFF 		bl	DJIMotorEnable
 826              	.LVL34:
 232:application/chassis/chassis.c ****         DJIMotorEnable(motor_rf);
 827              		.loc 1 232 9 view .LVU188
 828 0096 0A4B     		ldr	r3, .L52+16
 829 0098 1868     		ldr	r0, [r3]
 830 009a FFF7FEFF 		bl	DJIMotorEnable
 831              	.LVL35:
 233:application/chassis/chassis.c ****         DJIMotorEnable(motor_lb);
 832              		.loc 1 233 9 view .LVU189
 833 009e 094B     		ldr	r3, .L52+20
 834 00a0 1868     		ldr	r0, [r3]
 835 00a2 FFF7FEFF 		bl	DJIMotorEnable
 836              	.LVL36:
 234:application/chassis/chassis.c ****         DJIMotorEnable(motor_rb);
 837              		.loc 1 234 9 view .LVU190
 838 00a6 084B     		ldr	r3, .L52+24
 839 00a8 1868     		ldr	r0, [r3]
 840 00aa FFF7FEFF 		bl	DJIMotorEnable
 841              	.LVL37:
 842 00ae C5E7     		b	.L50
 843              	.L53:
 844              		.align	2
 845              	.L52:
 846 00b0 00000000 		.word	.LANCHOR12
 847 00b4 00000000 		.word	.LANCHOR21
 848 00b8 00000000 		.word	.LANCHOR11
 849 00bc 00000000 		.word	.LANCHOR17
 850 00c0 00000000 		.word	.LANCHOR18
 851 00c4 00000000 		.word	.LANCHOR19
 852 00c8 00000000 		.word	.LANCHOR20
 853 00cc 00000000 		.word	.LANCHOR10
 854 00d0 00000000 		.word	.LANCHOR2
 855 00d4 00000000 		.word	.LANCHOR7
 856 00d8 00000000 		.word	.LANCHOR22
 857              		.cfi_endproc
 858              	.LFE191:
 860              		.section	.bss.chassis_cmd_recv,"aw",%nobits
 861              		.align	2
 862              		.set	.LANCHOR12,. + 0
 865              	chassis_cmd_recv:
 866 0000 00000000 		.space	21
 866      00000000 
 866      00000000 
 866      00000000 
 866      00000000 
 867              		.section	.bss.chassis_feedback_data,"aw",%nobits
 868              		.align	2
 869              		.set	.LANCHOR7,. + 0
ARM GAS  C:\Users\blue\AppData\Local\Temp\ccZsplOl.s 			page 23


 872              	chassis_feedback_data:
 873 0000 0000     		.space	2
 874              		.section	.bss.chassis_pub,"aw",%nobits
 875              		.align	2
 876              		.set	.LANCHOR22,. + 0
 879              	chassis_pub:
 880 0000 00000000 		.space	4
 881              		.section	.bss.chassis_sub,"aw",%nobits
 882              		.align	2
 883              		.set	.LANCHOR21,. + 0
 886              	chassis_sub:
 887 0000 00000000 		.space	4
 888              		.section	.bss.chassis_vx,"aw",%nobits
 889              		.align	2
 890              		.set	.LANCHOR0,. + 0
 893              	chassis_vx:
 894 0000 00000000 		.space	4
 895              		.section	.bss.chassis_vy,"aw",%nobits
 896              		.align	2
 897              		.set	.LANCHOR1,. + 0
 900              	chassis_vy:
 901 0000 00000000 		.space	4
 902              		.section	.bss.chassis_w,"aw",%nobits
 903              		.align	2
 904              		.set	.LANCHOR2,. + 0
 907              	chassis_w:
 908 0000 00000000 		.space	4
 909              		.section	.bss.cos_theta.1,"aw",%nobits
 910              		.align	2
 911              		.set	.LANCHOR15,. + 0
 914              	cos_theta.1:
 915 0000 00000000 		.space	4
 916              		.section	.bss.ff_vx,"aw",%nobits
 917              		.align	2
 918              		.set	.LANCHOR13,. + 0
 921              	ff_vx:
 922 0000 00000000 		.space	4
 923              		.section	.bss.ff_vy,"aw",%nobits
 924              		.align	2
 925              		.set	.LANCHOR14,. + 0
 928              	ff_vy:
 929 0000 00000000 		.space	4
 930              		.section	.bss.heading_pid_instance,"aw",%nobits
 931              		.align	3
 932              		.set	.LANCHOR10,. + 0
 935              	heading_pid_instance:
 936 0000 00000000 		.space	120
 936      00000000 
 936      00000000 
 936      00000000 
 936      00000000 
 937              		.section	.bss.motor_lb,"aw",%nobits
 938              		.align	2
 939              		.set	.LANCHOR19,. + 0
 942              	motor_lb:
 943 0000 00000000 		.space	4
 944              		.section	.bss.motor_lf,"aw",%nobits
ARM GAS  C:\Users\blue\AppData\Local\Temp\ccZsplOl.s 			page 24


 945              		.align	2
 946              		.set	.LANCHOR17,. + 0
 949              	motor_lf:
 950 0000 00000000 		.space	4
 951              		.section	.bss.motor_rb,"aw",%nobits
 952              		.align	2
 953              		.set	.LANCHOR20,. + 0
 956              	motor_rb:
 957 0000 00000000 		.space	4
 958              		.section	.bss.motor_rf,"aw",%nobits
 959              		.align	2
 960              		.set	.LANCHOR18,. + 0
 963              	motor_rf:
 964 0000 00000000 		.space	4
 965              		.section	.bss.ops_data,"aw",%nobits
 966              		.align	2
 967              		.set	.LANCHOR11,. + 0
 970              	ops_data:
 971 0000 00000000 		.space	4
 972              		.section	.bss.sin_theta.0,"aw",%nobits
 973              		.align	2
 974              		.set	.LANCHOR16,. + 0
 977              	sin_theta.0:
 978 0000 00000000 		.space	4
 979              		.section	.bss.vt_lb,"aw",%nobits
 980              		.align	2
 981              		.set	.LANCHOR5,. + 0
 984              	vt_lb:
 985 0000 00000000 		.space	4
 986              		.section	.bss.vt_lf,"aw",%nobits
 987              		.align	2
 988              		.set	.LANCHOR3,. + 0
 991              	vt_lf:
 992 0000 00000000 		.space	4
 993              		.section	.bss.vt_rb,"aw",%nobits
 994              		.align	2
 995              		.set	.LANCHOR6,. + 0
 998              	vt_rb:
 999 0000 00000000 		.space	4
 1000              		.section	.bss.vt_rf,"aw",%nobits
 1001              		.align	2
 1002              		.set	.LANCHOR4,. + 0
 1005              	vt_rf:
 1006 0000 00000000 		.space	4
 1007              		.section	.bss.x_pid_instance,"aw",%nobits
 1008              		.align	3
 1009              		.set	.LANCHOR8,. + 0
 1012              	x_pid_instance:
 1013 0000 00000000 		.space	120
 1013      00000000 
 1013      00000000 
 1013      00000000 
 1013      00000000 
 1014              		.section	.bss.y_pid_instance,"aw",%nobits
 1015              		.align	3
 1016              		.set	.LANCHOR9,. + 0
 1019              	y_pid_instance:
ARM GAS  C:\Users\blue\AppData\Local\Temp\ccZsplOl.s 			page 25


 1020 0000 00000000 		.space	120
 1020      00000000 
 1020      00000000 
 1020      00000000 
 1020      00000000 
 1021              		.text
 1022              	.Letext0:
 1023              		.file 2 "d:\\rm\\arm-gnu-toolchian\\arm-none-eabi\\include\\machine\\_default_types.h"
 1024              		.file 3 "d:\\rm\\arm-gnu-toolchian\\arm-none-eabi\\include\\sys\\_stdint.h"
 1025              		.file 4 "application/robot_def.h"
 1026              		.file 5 "Drivers/CMSIS/Device/ST/STM32H7xx/Include/stm32h743xx.h"
 1027              		.file 6 "Drivers/CMSIS/Device/ST/STM32H7xx/Include/stm32h7xx.h"
 1028              		.file 7 "Drivers/STM32H7xx_HAL_Driver/Inc/stm32h7xx_hal_def.h"
 1029              		.file 8 "Drivers/STM32H7xx_HAL_Driver/Inc/stm32h7xx_hal_dma.h"
 1030              		.file 9 "Drivers/STM32H7xx_HAL_Driver/Inc/stm32h7xx_hal_fdcan.h"
 1031              		.file 10 "Drivers/STM32H7xx_HAL_Driver/Inc/stm32h7xx_hal_uart.h"
 1032              		.file 11 "bsp/can/bsp_can.h"
 1033              		.file 12 "modules/algorithm/controller.h"
 1034              		.file 13 "modules/motor/motor_def.h"
 1035              		.file 14 "modules/daemon/daemon.h"
 1036              		.file 15 "modules/motor/DJI_motor/dji_motor.h"
 1037              		.file 16 "modules/message_center/message_center.h"
 1038              		.file 17 "modules/ops/ops.h"
 1039              		.file 18 "Core/Inc/fdcan.h"
 1040              		.file 19 "Core/Inc/usart.h"
 1041              		.file 20 "Drivers/CMSIS/DSP/Include/arm_math.h"
 1042              		.file 21 "<built-in>"
ARM GAS  C:\Users\blue\AppData\Local\Temp\ccZsplOl.s 			page 26


DEFINED SYMBOLS
                            *ABS*:00000000 chassis.c
C:\Users\blue\AppData\Local\Temp\ccZsplOl.s:19     .text.OmniCalculate:00000000 $t
C:\Users\blue\AppData\Local\Temp\ccZsplOl.s:24     .text.OmniCalculate:00000000 OmniCalculate
C:\Users\blue\AppData\Local\Temp\ccZsplOl.s:74     .text.OmniCalculate:0000004c $d
C:\Users\blue\AppData\Local\Temp\ccZsplOl.s:86     .text.CheckStable:00000000 $t
C:\Users\blue\AppData\Local\Temp\ccZsplOl.s:91     .text.CheckStable:00000000 CheckStable
C:\Users\blue\AppData\Local\Temp\ccZsplOl.s:180    .text.CheckStable:000000a0 $d
C:\Users\blue\AppData\Local\Temp\ccZsplOl.s:190    .text.speedCalculate:00000000 $t
C:\Users\blue\AppData\Local\Temp\ccZsplOl.s:195    .text.speedCalculate:00000000 speedCalculate
C:\Users\blue\AppData\Local\Temp\ccZsplOl.s:328    .text.speedCalculate:000000e8 $d
C:\Users\blue\AppData\Local\Temp\ccZsplOl.s:347    .text.CoordinateTransform:00000000 $t
C:\Users\blue\AppData\Local\Temp\ccZsplOl.s:352    .text.CoordinateTransform:00000000 CoordinateTransform
C:\Users\blue\AppData\Local\Temp\ccZsplOl.s:428    .text.CoordinateTransform:0000006c $d
C:\Users\blue\AppData\Local\Temp\ccZsplOl.s:438    .text.LimitChassisOutput:00000000 $t
C:\Users\blue\AppData\Local\Temp\ccZsplOl.s:443    .text.LimitChassisOutput:00000000 LimitChassisOutput
C:\Users\blue\AppData\Local\Temp\ccZsplOl.s:487    .text.LimitChassisOutput:0000003c $d
C:\Users\blue\AppData\Local\Temp\ccZsplOl.s:499    .rodata.ChassisInit.str1.4:00000000 $d
C:\Users\blue\AppData\Local\Temp\ccZsplOl.s:506    .text.ChassisInit:00000000 $t
C:\Users\blue\AppData\Local\Temp\ccZsplOl.s:512    .text.ChassisInit:00000000 ChassisInit
C:\Users\blue\AppData\Local\Temp\ccZsplOl.s:690    .text.ChassisInit:000000f8 $d
C:\Users\blue\AppData\Local\Temp\ccZsplOl.s:713    .text.ChassisTask:00000000 $t
C:\Users\blue\AppData\Local\Temp\ccZsplOl.s:719    .text.ChassisTask:00000000 ChassisTask
C:\Users\blue\AppData\Local\Temp\ccZsplOl.s:846    .text.ChassisTask:000000b0 $d
C:\Users\blue\AppData\Local\Temp\ccZsplOl.s:861    .bss.chassis_cmd_recv:00000000 $d
C:\Users\blue\AppData\Local\Temp\ccZsplOl.s:865    .bss.chassis_cmd_recv:00000000 chassis_cmd_recv
C:\Users\blue\AppData\Local\Temp\ccZsplOl.s:868    .bss.chassis_feedback_data:00000000 $d
C:\Users\blue\AppData\Local\Temp\ccZsplOl.s:872    .bss.chassis_feedback_data:00000000 chassis_feedback_data
C:\Users\blue\AppData\Local\Temp\ccZsplOl.s:875    .bss.chassis_pub:00000000 $d
C:\Users\blue\AppData\Local\Temp\ccZsplOl.s:879    .bss.chassis_pub:00000000 chassis_pub
C:\Users\blue\AppData\Local\Temp\ccZsplOl.s:882    .bss.chassis_sub:00000000 $d
C:\Users\blue\AppData\Local\Temp\ccZsplOl.s:886    .bss.chassis_sub:00000000 chassis_sub
C:\Users\blue\AppData\Local\Temp\ccZsplOl.s:889    .bss.chassis_vx:00000000 $d
C:\Users\blue\AppData\Local\Temp\ccZsplOl.s:893    .bss.chassis_vx:00000000 chassis_vx
C:\Users\blue\AppData\Local\Temp\ccZsplOl.s:896    .bss.chassis_vy:00000000 $d
C:\Users\blue\AppData\Local\Temp\ccZsplOl.s:900    .bss.chassis_vy:00000000 chassis_vy
C:\Users\blue\AppData\Local\Temp\ccZsplOl.s:903    .bss.chassis_w:00000000 $d
C:\Users\blue\AppData\Local\Temp\ccZsplOl.s:907    .bss.chassis_w:00000000 chassis_w
C:\Users\blue\AppData\Local\Temp\ccZsplOl.s:910    .bss.cos_theta.1:00000000 $d
C:\Users\blue\AppData\Local\Temp\ccZsplOl.s:914    .bss.cos_theta.1:00000000 cos_theta.1
C:\Users\blue\AppData\Local\Temp\ccZsplOl.s:917    .bss.ff_vx:00000000 $d
C:\Users\blue\AppData\Local\Temp\ccZsplOl.s:921    .bss.ff_vx:00000000 ff_vx
C:\Users\blue\AppData\Local\Temp\ccZsplOl.s:924    .bss.ff_vy:00000000 $d
C:\Users\blue\AppData\Local\Temp\ccZsplOl.s:928    .bss.ff_vy:00000000 ff_vy
C:\Users\blue\AppData\Local\Temp\ccZsplOl.s:931    .bss.heading_pid_instance:00000000 $d
C:\Users\blue\AppData\Local\Temp\ccZsplOl.s:935    .bss.heading_pid_instance:00000000 heading_pid_instance
C:\Users\blue\AppData\Local\Temp\ccZsplOl.s:938    .bss.motor_lb:00000000 $d
C:\Users\blue\AppData\Local\Temp\ccZsplOl.s:942    .bss.motor_lb:00000000 motor_lb
C:\Users\blue\AppData\Local\Temp\ccZsplOl.s:945    .bss.motor_lf:00000000 $d
C:\Users\blue\AppData\Local\Temp\ccZsplOl.s:949    .bss.motor_lf:00000000 motor_lf
C:\Users\blue\AppData\Local\Temp\ccZsplOl.s:952    .bss.motor_rb:00000000 $d
C:\Users\blue\AppData\Local\Temp\ccZsplOl.s:956    .bss.motor_rb:00000000 motor_rb
C:\Users\blue\AppData\Local\Temp\ccZsplOl.s:959    .bss.motor_rf:00000000 $d
C:\Users\blue\AppData\Local\Temp\ccZsplOl.s:963    .bss.motor_rf:00000000 motor_rf
C:\Users\blue\AppData\Local\Temp\ccZsplOl.s:966    .bss.ops_data:00000000 $d
C:\Users\blue\AppData\Local\Temp\ccZsplOl.s:970    .bss.ops_data:00000000 ops_data
C:\Users\blue\AppData\Local\Temp\ccZsplOl.s:973    .bss.sin_theta.0:00000000 $d
ARM GAS  C:\Users\blue\AppData\Local\Temp\ccZsplOl.s 			page 27


C:\Users\blue\AppData\Local\Temp\ccZsplOl.s:977    .bss.sin_theta.0:00000000 sin_theta.0
C:\Users\blue\AppData\Local\Temp\ccZsplOl.s:980    .bss.vt_lb:00000000 $d
C:\Users\blue\AppData\Local\Temp\ccZsplOl.s:984    .bss.vt_lb:00000000 vt_lb
C:\Users\blue\AppData\Local\Temp\ccZsplOl.s:987    .bss.vt_lf:00000000 $d
C:\Users\blue\AppData\Local\Temp\ccZsplOl.s:991    .bss.vt_lf:00000000 vt_lf
C:\Users\blue\AppData\Local\Temp\ccZsplOl.s:994    .bss.vt_rb:00000000 $d
C:\Users\blue\AppData\Local\Temp\ccZsplOl.s:998    .bss.vt_rb:00000000 vt_rb
C:\Users\blue\AppData\Local\Temp\ccZsplOl.s:1001   .bss.vt_rf:00000000 $d
C:\Users\blue\AppData\Local\Temp\ccZsplOl.s:1005   .bss.vt_rf:00000000 vt_rf
C:\Users\blue\AppData\Local\Temp\ccZsplOl.s:1008   .bss.x_pid_instance:00000000 $d
C:\Users\blue\AppData\Local\Temp\ccZsplOl.s:1012   .bss.x_pid_instance:00000000 x_pid_instance
C:\Users\blue\AppData\Local\Temp\ccZsplOl.s:1015   .bss.y_pid_instance:00000000 $d
C:\Users\blue\AppData\Local\Temp\ccZsplOl.s:1019   .bss.y_pid_instance:00000000 y_pid_instance

UNDEFINED SYMBOLS
PIDCalculate
arm_cos_f32
arm_sin_f32
DJIMotorSetRef
Ops_Init
memset
PIDInit
DJIMotorInit
SubRegister
PubRegister
huart6
hfdcan1
SubGetMessage
DJIMotorStop
PubPushMessage
DJIMotorEnable
