ARM GAS  C:\Users\blue\AppData\Local\Temp\cceLavav.s 			page 1


   1              		.cpu cortex-m7
   2              		.arch armv7e-m
   3              		.fpu fpv5-d16
   4              		.eabi_attribute 28, 1
   5              		.eabi_attribute 20, 1
   6              		.eabi_attribute 21, 1
   7              		.eabi_attribute 23, 3
   8              		.eabi_attribute 24, 1
   9              		.eabi_attribute 25, 1
  10              		.eabi_attribute 26, 1
  11              		.eabi_attribute 30, 1
  12              		.eabi_attribute 34, 1
  13              		.eabi_attribute 18, 4
  14              		.file	"fmc.c"
  15              		.text
  16              	.Ltext0:
  17              		.cfi_sections	.debug_frame
  18              		.section	.text.HAL_FMC_MspInit,"ax",%progbits
  19              		.align	1
  20              		.syntax unified
  21              		.thumb
  22              		.thumb_func
  24              	HAL_FMC_MspInit:
  25              	.LFB145:
  26              		.file 1 "Core/Src/fmc.c"
   1:Core/Src/fmc.c **** /* USER CODE BEGIN Header */
   2:Core/Src/fmc.c **** /**
   3:Core/Src/fmc.c ****   ******************************************************************************
   4:Core/Src/fmc.c ****   * File Name          : FMC.c
   5:Core/Src/fmc.c ****   * Description        : This file provides code for the configuration
   6:Core/Src/fmc.c ****   *                      of the FMC peripheral.
   7:Core/Src/fmc.c ****   ******************************************************************************
   8:Core/Src/fmc.c ****   * @attention
   9:Core/Src/fmc.c ****   *
  10:Core/Src/fmc.c ****   * Copyright (c) 2024 STMicroelectronics.
  11:Core/Src/fmc.c ****   * All rights reserved.
  12:Core/Src/fmc.c ****   *
  13:Core/Src/fmc.c ****   * This software is licensed under terms that can be found in the LICENSE file
  14:Core/Src/fmc.c ****   * in the root directory of this software component.
  15:Core/Src/fmc.c ****   * If no LICENSE file comes with this software, it is provided AS-IS.
  16:Core/Src/fmc.c ****   *
  17:Core/Src/fmc.c ****   ******************************************************************************
  18:Core/Src/fmc.c ****   */
  19:Core/Src/fmc.c **** /* USER CODE END Header */
  20:Core/Src/fmc.c **** 
  21:Core/Src/fmc.c **** /* Includes ------------------------------------------------------------------*/
  22:Core/Src/fmc.c **** #include "fmc.h"
  23:Core/Src/fmc.c **** 
  24:Core/Src/fmc.c **** /* USER CODE BEGIN 0 */
  25:Core/Src/fmc.c **** 
  26:Core/Src/fmc.c **** /* USER CODE END 0 */
  27:Core/Src/fmc.c **** 
  28:Core/Src/fmc.c **** SDRAM_HandleTypeDef hsdram1;
  29:Core/Src/fmc.c **** 
  30:Core/Src/fmc.c **** /* FMC initialization function */
  31:Core/Src/fmc.c **** void MX_FMC_Init(void)
  32:Core/Src/fmc.c **** {
ARM GAS  C:\Users\blue\AppData\Local\Temp\cceLavav.s 			page 2


  33:Core/Src/fmc.c ****   /* USER CODE BEGIN FMC_Init 0 */
  34:Core/Src/fmc.c **** 
  35:Core/Src/fmc.c ****   /* USER CODE END FMC_Init 0 */
  36:Core/Src/fmc.c **** 
  37:Core/Src/fmc.c ****   FMC_SDRAM_TimingTypeDef SdramTiming = {0};
  38:Core/Src/fmc.c **** 
  39:Core/Src/fmc.c ****   /* USER CODE BEGIN FMC_Init 1 */
  40:Core/Src/fmc.c **** 
  41:Core/Src/fmc.c ****   /* USER CODE END FMC_Init 1 */
  42:Core/Src/fmc.c **** 
  43:Core/Src/fmc.c ****   /** Perform the SDRAM1 memory initialization sequence
  44:Core/Src/fmc.c ****   */
  45:Core/Src/fmc.c ****   hsdram1.Instance = FMC_SDRAM_DEVICE;
  46:Core/Src/fmc.c ****   /* hsdram1.Init */
  47:Core/Src/fmc.c ****   hsdram1.Init.SDBank = FMC_SDRAM_BANK1;
  48:Core/Src/fmc.c ****   hsdram1.Init.ColumnBitsNumber = FMC_SDRAM_COLUMN_BITS_NUM_9;
  49:Core/Src/fmc.c ****   hsdram1.Init.RowBitsNumber = FMC_SDRAM_ROW_BITS_NUM_13;
  50:Core/Src/fmc.c ****   hsdram1.Init.MemoryDataWidth = FMC_SDRAM_MEM_BUS_WIDTH_16;
  51:Core/Src/fmc.c ****   hsdram1.Init.InternalBankNumber = FMC_SDRAM_INTERN_BANKS_NUM_4;
  52:Core/Src/fmc.c ****   hsdram1.Init.CASLatency = FMC_SDRAM_CAS_LATENCY_3;
  53:Core/Src/fmc.c ****   hsdram1.Init.WriteProtection = FMC_SDRAM_WRITE_PROTECTION_DISABLE;
  54:Core/Src/fmc.c ****   hsdram1.Init.SDClockPeriod = FMC_SDRAM_CLOCK_PERIOD_2;
  55:Core/Src/fmc.c ****   hsdram1.Init.ReadBurst = FMC_SDRAM_RBURST_ENABLE;
  56:Core/Src/fmc.c ****   hsdram1.Init.ReadPipeDelay = FMC_SDRAM_RPIPE_DELAY_0;
  57:Core/Src/fmc.c ****   /* SdramTiming */
  58:Core/Src/fmc.c ****   SdramTiming.LoadToActiveDelay = 2;
  59:Core/Src/fmc.c ****   SdramTiming.ExitSelfRefreshDelay = 7;
  60:Core/Src/fmc.c ****   SdramTiming.SelfRefreshTime = 4;
  61:Core/Src/fmc.c ****   SdramTiming.RowCycleDelay = 7;
  62:Core/Src/fmc.c ****   SdramTiming.WriteRecoveryTime = 3;
  63:Core/Src/fmc.c ****   SdramTiming.RPDelay = 2;
  64:Core/Src/fmc.c ****   SdramTiming.RCDDelay = 2;
  65:Core/Src/fmc.c **** 
  66:Core/Src/fmc.c ****   if (HAL_SDRAM_Init(&hsdram1, &SdramTiming) != HAL_OK)
  67:Core/Src/fmc.c ****   {
  68:Core/Src/fmc.c ****     Error_Handler( );
  69:Core/Src/fmc.c ****   }
  70:Core/Src/fmc.c **** 
  71:Core/Src/fmc.c ****   /* USER CODE BEGIN FMC_Init 2 */
  72:Core/Src/fmc.c **** 
  73:Core/Src/fmc.c ****   /* USER CODE END FMC_Init 2 */
  74:Core/Src/fmc.c **** }
  75:Core/Src/fmc.c **** 
  76:Core/Src/fmc.c **** static uint32_t FMC_Initialized = 0;
  77:Core/Src/fmc.c **** 
  78:Core/Src/fmc.c **** static void HAL_FMC_MspInit(void){
  27              		.loc 1 78 34 view -0
  28              		.cfi_startproc
  29              		@ args = 0, pretend = 0, frame = 224
  30              		@ frame_needed = 0, uses_anonymous_args = 0
  31 0000 F0B5     		push	{r4, r5, r6, r7, lr}
  32              	.LCFI0:
  33              		.cfi_def_cfa_offset 20
  34              		.cfi_offset 4, -20
  35              		.cfi_offset 5, -16
  36              		.cfi_offset 6, -12
  37              		.cfi_offset 7, -8
ARM GAS  C:\Users\blue\AppData\Local\Temp\cceLavav.s 			page 3


  38              		.cfi_offset 14, -4
  39 0002 B9B0     		sub	sp, sp, #228
  40              	.LCFI1:
  41              		.cfi_def_cfa_offset 248
  79:Core/Src/fmc.c ****   /* USER CODE BEGIN FMC_MspInit 0 */
  80:Core/Src/fmc.c **** 
  81:Core/Src/fmc.c ****   /* USER CODE END FMC_MspInit 0 */
  82:Core/Src/fmc.c ****   GPIO_InitTypeDef GPIO_InitStruct = {0};
  42              		.loc 1 82 3 view .LVU1
  43              		.loc 1 82 20 is_stmt 0 view .LVU2
  44 0004 0023     		movs	r3, #0
  45 0006 3393     		str	r3, [sp, #204]
  46 0008 3493     		str	r3, [sp, #208]
  47 000a 3593     		str	r3, [sp, #212]
  48 000c 3693     		str	r3, [sp, #216]
  49 000e 3793     		str	r3, [sp, #220]
  83:Core/Src/fmc.c ****   if (FMC_Initialized) {
  50              		.loc 1 83 3 is_stmt 1 view .LVU3
  51              		.loc 1 83 7 is_stmt 0 view .LVU4
  52 0010 354B     		ldr	r3, .L8
  53 0012 1B68     		ldr	r3, [r3]
  54              		.loc 1 83 6 view .LVU5
  55 0014 0BB1     		cbz	r3, .L6
  56              	.L1:
  84:Core/Src/fmc.c ****     return;
  85:Core/Src/fmc.c ****   }
  86:Core/Src/fmc.c ****   FMC_Initialized = 1;
  87:Core/Src/fmc.c ****   RCC_PeriphCLKInitTypeDef PeriphClkInitStruct = {0};
  88:Core/Src/fmc.c **** 
  89:Core/Src/fmc.c ****   /** Initializes the peripherals clock
  90:Core/Src/fmc.c ****   */
  91:Core/Src/fmc.c ****     PeriphClkInitStruct.PeriphClockSelection = RCC_PERIPHCLK_FMC;
  92:Core/Src/fmc.c ****     PeriphClkInitStruct.FmcClockSelection = RCC_FMCCLKSOURCE_D1HCLK;
  93:Core/Src/fmc.c ****     if (HAL_RCCEx_PeriphCLKConfig(&PeriphClkInitStruct) != HAL_OK)
  94:Core/Src/fmc.c ****     {
  95:Core/Src/fmc.c ****       Error_Handler();
  96:Core/Src/fmc.c ****     }
  97:Core/Src/fmc.c **** 
  98:Core/Src/fmc.c ****   /* Peripheral clock enable */
  99:Core/Src/fmc.c ****   __HAL_RCC_FMC_CLK_ENABLE();
 100:Core/Src/fmc.c **** 
 101:Core/Src/fmc.c ****   /** FMC GPIO Configuration
 102:Core/Src/fmc.c ****   PE1   ------> FMC_NBL1
 103:Core/Src/fmc.c ****   PE0   ------> FMC_NBL0
 104:Core/Src/fmc.c ****   PG15   ------> FMC_SDNCAS
 105:Core/Src/fmc.c ****   PD0   ------> FMC_D2
 106:Core/Src/fmc.c ****   PD1   ------> FMC_D3
 107:Core/Src/fmc.c ****   PG8   ------> FMC_SDCLK
 108:Core/Src/fmc.c ****   PF2   ------> FMC_A2
 109:Core/Src/fmc.c ****   PF1   ------> FMC_A1
 110:Core/Src/fmc.c ****   PF0   ------> FMC_A0
 111:Core/Src/fmc.c ****   PG5   ------> FMC_BA1
 112:Core/Src/fmc.c ****   PF3   ------> FMC_A3
 113:Core/Src/fmc.c ****   PG4   ------> FMC_BA0
 114:Core/Src/fmc.c ****   PG2   ------> FMC_A12
 115:Core/Src/fmc.c ****   PF5   ------> FMC_A5
 116:Core/Src/fmc.c ****   PF4   ------> FMC_A4
ARM GAS  C:\Users\blue\AppData\Local\Temp\cceLavav.s 			page 4


 117:Core/Src/fmc.c ****   PC0   ------> FMC_SDNWE
 118:Core/Src/fmc.c ****   PH2   ------> FMC_SDCKE0
 119:Core/Src/fmc.c ****   PE10   ------> FMC_D7
 120:Core/Src/fmc.c ****   PH3   ------> FMC_SDNE0
 121:Core/Src/fmc.c ****   PF13   ------> FMC_A7
 122:Core/Src/fmc.c ****   PF14   ------> FMC_A8
 123:Core/Src/fmc.c ****   PE9   ------> FMC_D6
 124:Core/Src/fmc.c ****   PE11   ------> FMC_D8
 125:Core/Src/fmc.c ****   PD15   ------> FMC_D1
 126:Core/Src/fmc.c ****   PD14   ------> FMC_D0
 127:Core/Src/fmc.c ****   PF12   ------> FMC_A6
 128:Core/Src/fmc.c ****   PF15   ------> FMC_A9
 129:Core/Src/fmc.c ****   PE12   ------> FMC_D9
 130:Core/Src/fmc.c ****   PE15   ------> FMC_D12
 131:Core/Src/fmc.c ****   PF11   ------> FMC_SDNRAS
 132:Core/Src/fmc.c ****   PG0   ------> FMC_A10
 133:Core/Src/fmc.c ****   PE8   ------> FMC_D5
 134:Core/Src/fmc.c ****   PE13   ------> FMC_D10
 135:Core/Src/fmc.c ****   PD10   ------> FMC_D15
 136:Core/Src/fmc.c ****   PD9   ------> FMC_D14
 137:Core/Src/fmc.c ****   PG1   ------> FMC_A11
 138:Core/Src/fmc.c ****   PE7   ------> FMC_D4
 139:Core/Src/fmc.c ****   PE14   ------> FMC_D11
 140:Core/Src/fmc.c ****   PD8   ------> FMC_D13
 141:Core/Src/fmc.c ****   */
 142:Core/Src/fmc.c ****   /* GPIO_InitStruct */
 143:Core/Src/fmc.c ****   GPIO_InitStruct.Pin = GPIO_PIN_1|GPIO_PIN_0|GPIO_PIN_10|GPIO_PIN_9
 144:Core/Src/fmc.c ****                           |GPIO_PIN_11|GPIO_PIN_12|GPIO_PIN_15|GPIO_PIN_8
 145:Core/Src/fmc.c ****                           |GPIO_PIN_13|GPIO_PIN_7|GPIO_PIN_14;
 146:Core/Src/fmc.c ****   GPIO_InitStruct.Mode = GPIO_MODE_AF_PP;
 147:Core/Src/fmc.c ****   GPIO_InitStruct.Pull = GPIO_NOPULL;
 148:Core/Src/fmc.c ****   GPIO_InitStruct.Speed = GPIO_SPEED_FREQ_VERY_HIGH;
 149:Core/Src/fmc.c ****   GPIO_InitStruct.Alternate = GPIO_AF12_FMC;
 150:Core/Src/fmc.c **** 
 151:Core/Src/fmc.c ****   HAL_GPIO_Init(GPIOE, &GPIO_InitStruct);
 152:Core/Src/fmc.c **** 
 153:Core/Src/fmc.c ****   /* GPIO_InitStruct */
 154:Core/Src/fmc.c ****   GPIO_InitStruct.Pin = GPIO_PIN_15|GPIO_PIN_8|GPIO_PIN_5|GPIO_PIN_4
 155:Core/Src/fmc.c ****                           |GPIO_PIN_2|GPIO_PIN_0|GPIO_PIN_1;
 156:Core/Src/fmc.c ****   GPIO_InitStruct.Mode = GPIO_MODE_AF_PP;
 157:Core/Src/fmc.c ****   GPIO_InitStruct.Pull = GPIO_NOPULL;
 158:Core/Src/fmc.c ****   GPIO_InitStruct.Speed = GPIO_SPEED_FREQ_VERY_HIGH;
 159:Core/Src/fmc.c ****   GPIO_InitStruct.Alternate = GPIO_AF12_FMC;
 160:Core/Src/fmc.c **** 
 161:Core/Src/fmc.c ****   HAL_GPIO_Init(GPIOG, &GPIO_InitStruct);
 162:Core/Src/fmc.c **** 
 163:Core/Src/fmc.c ****   /* GPIO_InitStruct */
 164:Core/Src/fmc.c ****   GPIO_InitStruct.Pin = GPIO_PIN_0|GPIO_PIN_1|GPIO_PIN_15|GPIO_PIN_14
 165:Core/Src/fmc.c ****                           |GPIO_PIN_10|GPIO_PIN_9|GPIO_PIN_8;
 166:Core/Src/fmc.c ****   GPIO_InitStruct.Mode = GPIO_MODE_AF_PP;
 167:Core/Src/fmc.c ****   GPIO_InitStruct.Pull = GPIO_NOPULL;
 168:Core/Src/fmc.c ****   GPIO_InitStruct.Speed = GPIO_SPEED_FREQ_VERY_HIGH;
 169:Core/Src/fmc.c ****   GPIO_InitStruct.Alternate = GPIO_AF12_FMC;
 170:Core/Src/fmc.c **** 
 171:Core/Src/fmc.c ****   HAL_GPIO_Init(GPIOD, &GPIO_InitStruct);
 172:Core/Src/fmc.c **** 
 173:Core/Src/fmc.c ****   /* GPIO_InitStruct */
ARM GAS  C:\Users\blue\AppData\Local\Temp\cceLavav.s 			page 5


 174:Core/Src/fmc.c ****   GPIO_InitStruct.Pin = GPIO_PIN_2|GPIO_PIN_1|GPIO_PIN_0|GPIO_PIN_3
 175:Core/Src/fmc.c ****                           |GPIO_PIN_5|GPIO_PIN_4|GPIO_PIN_13|GPIO_PIN_14
 176:Core/Src/fmc.c ****                           |GPIO_PIN_12|GPIO_PIN_15|GPIO_PIN_11;
 177:Core/Src/fmc.c ****   GPIO_InitStruct.Mode = GPIO_MODE_AF_PP;
 178:Core/Src/fmc.c ****   GPIO_InitStruct.Pull = GPIO_NOPULL;
 179:Core/Src/fmc.c ****   GPIO_InitStruct.Speed = GPIO_SPEED_FREQ_VERY_HIGH;
 180:Core/Src/fmc.c ****   GPIO_InitStruct.Alternate = GPIO_AF12_FMC;
 181:Core/Src/fmc.c **** 
 182:Core/Src/fmc.c ****   HAL_GPIO_Init(GPIOF, &GPIO_InitStruct);
 183:Core/Src/fmc.c **** 
 184:Core/Src/fmc.c ****   /* GPIO_InitStruct */
 185:Core/Src/fmc.c ****   GPIO_InitStruct.Pin = GPIO_PIN_0;
 186:Core/Src/fmc.c ****   GPIO_InitStruct.Mode = GPIO_MODE_AF_PP;
 187:Core/Src/fmc.c ****   GPIO_InitStruct.Pull = GPIO_NOPULL;
 188:Core/Src/fmc.c ****   GPIO_InitStruct.Speed = GPIO_SPEED_FREQ_VERY_HIGH;
 189:Core/Src/fmc.c ****   GPIO_InitStruct.Alternate = GPIO_AF12_FMC;
 190:Core/Src/fmc.c **** 
 191:Core/Src/fmc.c ****   HAL_GPIO_Init(GPIOC, &GPIO_InitStruct);
 192:Core/Src/fmc.c **** 
 193:Core/Src/fmc.c ****   /* GPIO_InitStruct */
 194:Core/Src/fmc.c ****   GPIO_InitStruct.Pin = GPIO_PIN_2|GPIO_PIN_3;
 195:Core/Src/fmc.c ****   GPIO_InitStruct.Mode = GPIO_MODE_AF_PP;
 196:Core/Src/fmc.c ****   GPIO_InitStruct.Pull = GPIO_NOPULL;
 197:Core/Src/fmc.c ****   GPIO_InitStruct.Speed = GPIO_SPEED_FREQ_VERY_HIGH;
 198:Core/Src/fmc.c ****   GPIO_InitStruct.Alternate = GPIO_AF12_FMC;
 199:Core/Src/fmc.c **** 
 200:Core/Src/fmc.c ****   HAL_GPIO_Init(GPIOH, &GPIO_InitStruct);
 201:Core/Src/fmc.c **** 
 202:Core/Src/fmc.c ****   /* USER CODE BEGIN FMC_MspInit 1 */
 203:Core/Src/fmc.c **** 
 204:Core/Src/fmc.c ****   /* USER CODE END FMC_MspInit 1 */
 205:Core/Src/fmc.c **** }
  57              		.loc 1 205 1 view .LVU6
  58 0016 39B0     		add	sp, sp, #228
  59              	.LCFI2:
  60              		.cfi_remember_state
  61              		.cfi_def_cfa_offset 20
  62              		@ sp needed
  63 0018 F0BD     		pop	{r4, r5, r6, r7, pc}
  64              	.L6:
  65              	.LCFI3:
  66              		.cfi_restore_state
  86:Core/Src/fmc.c ****   RCC_PeriphCLKInitTypeDef PeriphClkInitStruct = {0};
  67              		.loc 1 86 3 is_stmt 1 view .LVU7
  86:Core/Src/fmc.c ****   RCC_PeriphCLKInitTypeDef PeriphClkInitStruct = {0};
  68              		.loc 1 86 19 is_stmt 0 view .LVU8
  69 001a 334B     		ldr	r3, .L8
  70 001c 0122     		movs	r2, #1
  71 001e 1A60     		str	r2, [r3]
  87:Core/Src/fmc.c **** 
  72              		.loc 1 87 3 is_stmt 1 view .LVU9
  87:Core/Src/fmc.c **** 
  73              		.loc 1 87 28 is_stmt 0 view .LVU10
  74 0020 C022     		movs	r2, #192
  75 0022 0021     		movs	r1, #0
  76 0024 02A8     		add	r0, sp, #8
  77 0026 FFF7FEFF 		bl	memset
ARM GAS  C:\Users\blue\AppData\Local\Temp\cceLavav.s 			page 6


  78              	.LVL0:
  91:Core/Src/fmc.c ****     PeriphClkInitStruct.FmcClockSelection = RCC_FMCCLKSOURCE_D1HCLK;
  79              		.loc 1 91 5 is_stmt 1 view .LVU11
  91:Core/Src/fmc.c ****     PeriphClkInitStruct.FmcClockSelection = RCC_FMCCLKSOURCE_D1HCLK;
  80              		.loc 1 91 46 is_stmt 0 view .LVU12
  81 002a 4FF08072 		mov	r2, #16777216
  82 002e 0023     		movs	r3, #0
  83 0030 CDE90223 		strd	r2, [sp, #8]
  92:Core/Src/fmc.c ****     if (HAL_RCCEx_PeriphCLKConfig(&PeriphClkInitStruct) != HAL_OK)
  84              		.loc 1 92 5 is_stmt 1 view .LVU13
  93:Core/Src/fmc.c ****     {
  85              		.loc 1 93 5 view .LVU14
  93:Core/Src/fmc.c ****     {
  86              		.loc 1 93 9 is_stmt 0 view .LVU15
  87 0034 02A8     		add	r0, sp, #8
  88 0036 FFF7FEFF 		bl	HAL_RCCEx_PeriphCLKConfig
  89              	.LVL1:
  93:Core/Src/fmc.c ****     {
  90              		.loc 1 93 8 view .LVU16
  91 003a 0028     		cmp	r0, #0
  92 003c 50D1     		bne	.L7
  93              	.L4:
  99:Core/Src/fmc.c **** 
  94              		.loc 1 99 3 is_stmt 1 view .LVU17
  95              	.LBB2:
  99:Core/Src/fmc.c **** 
  96              		.loc 1 99 3 view .LVU18
  99:Core/Src/fmc.c **** 
  97              		.loc 1 99 3 view .LVU19
  98 003e 2B4B     		ldr	r3, .L8+4
  99 0040 D3F8D420 		ldr	r2, [r3, #212]
 100 0044 42F48052 		orr	r2, r2, #4096
 101 0048 C3F8D420 		str	r2, [r3, #212]
  99:Core/Src/fmc.c **** 
 102              		.loc 1 99 3 view .LVU20
 103 004c D3F8D430 		ldr	r3, [r3, #212]
 104 0050 03F48053 		and	r3, r3, #4096
 105 0054 0193     		str	r3, [sp, #4]
  99:Core/Src/fmc.c **** 
 106              		.loc 1 99 3 view .LVU21
 107 0056 019B     		ldr	r3, [sp, #4]
 108              	.LBE2:
  99:Core/Src/fmc.c **** 
 109              		.loc 1 99 3 view .LVU22
 143:Core/Src/fmc.c ****                           |GPIO_PIN_11|GPIO_PIN_12|GPIO_PIN_15|GPIO_PIN_8
 110              		.loc 1 143 3 view .LVU23
 143:Core/Src/fmc.c ****                           |GPIO_PIN_11|GPIO_PIN_12|GPIO_PIN_15|GPIO_PIN_8
 111              		.loc 1 143 23 is_stmt 0 view .LVU24
 112 0058 4FF68373 		movw	r3, #65411
 113 005c 3393     		str	r3, [sp, #204]
 146:Core/Src/fmc.c ****   GPIO_InitStruct.Pull = GPIO_NOPULL;
 114              		.loc 1 146 3 is_stmt 1 view .LVU25
 146:Core/Src/fmc.c ****   GPIO_InitStruct.Pull = GPIO_NOPULL;
 115              		.loc 1 146 24 is_stmt 0 view .LVU26
 116 005e 0227     		movs	r7, #2
 117 0060 3497     		str	r7, [sp, #208]
 147:Core/Src/fmc.c ****   GPIO_InitStruct.Speed = GPIO_SPEED_FREQ_VERY_HIGH;
ARM GAS  C:\Users\blue\AppData\Local\Temp\cceLavav.s 			page 7


 118              		.loc 1 147 3 is_stmt 1 view .LVU27
 147:Core/Src/fmc.c ****   GPIO_InitStruct.Speed = GPIO_SPEED_FREQ_VERY_HIGH;
 119              		.loc 1 147 24 is_stmt 0 view .LVU28
 120 0062 0026     		movs	r6, #0
 121 0064 3596     		str	r6, [sp, #212]
 148:Core/Src/fmc.c ****   GPIO_InitStruct.Alternate = GPIO_AF12_FMC;
 122              		.loc 1 148 3 is_stmt 1 view .LVU29
 148:Core/Src/fmc.c ****   GPIO_InitStruct.Alternate = GPIO_AF12_FMC;
 123              		.loc 1 148 25 is_stmt 0 view .LVU30
 124 0066 0325     		movs	r5, #3
 125 0068 3695     		str	r5, [sp, #216]
 149:Core/Src/fmc.c **** 
 126              		.loc 1 149 3 is_stmt 1 view .LVU31
 149:Core/Src/fmc.c **** 
 127              		.loc 1 149 29 is_stmt 0 view .LVU32
 128 006a 0C24     		movs	r4, #12
 129 006c 3794     		str	r4, [sp, #220]
 151:Core/Src/fmc.c **** 
 130              		.loc 1 151 3 is_stmt 1 view .LVU33
 131 006e 33A9     		add	r1, sp, #204
 132 0070 1F48     		ldr	r0, .L8+8
 133 0072 FFF7FEFF 		bl	HAL_GPIO_Init
 134              	.LVL2:
 154:Core/Src/fmc.c ****                           |GPIO_PIN_2|GPIO_PIN_0|GPIO_PIN_1;
 135              		.loc 1 154 3 view .LVU34
 154:Core/Src/fmc.c ****                           |GPIO_PIN_2|GPIO_PIN_0|GPIO_PIN_1;
 136              		.loc 1 154 23 is_stmt 0 view .LVU35
 137 0076 48F23713 		movw	r3, #33079
 138 007a 3393     		str	r3, [sp, #204]
 156:Core/Src/fmc.c ****   GPIO_InitStruct.Pull = GPIO_NOPULL;
 139              		.loc 1 156 3 is_stmt 1 view .LVU36
 156:Core/Src/fmc.c ****   GPIO_InitStruct.Pull = GPIO_NOPULL;
 140              		.loc 1 156 24 is_stmt 0 view .LVU37
 141 007c 3497     		str	r7, [sp, #208]
 157:Core/Src/fmc.c ****   GPIO_InitStruct.Speed = GPIO_SPEED_FREQ_VERY_HIGH;
 142              		.loc 1 157 3 is_stmt 1 view .LVU38
 157:Core/Src/fmc.c ****   GPIO_InitStruct.Speed = GPIO_SPEED_FREQ_VERY_HIGH;
 143              		.loc 1 157 24 is_stmt 0 view .LVU39
 144 007e 3596     		str	r6, [sp, #212]
 158:Core/Src/fmc.c ****   GPIO_InitStruct.Alternate = GPIO_AF12_FMC;
 145              		.loc 1 158 3 is_stmt 1 view .LVU40
 158:Core/Src/fmc.c ****   GPIO_InitStruct.Alternate = GPIO_AF12_FMC;
 146              		.loc 1 158 25 is_stmt 0 view .LVU41
 147 0080 3695     		str	r5, [sp, #216]
 159:Core/Src/fmc.c **** 
 148              		.loc 1 159 3 is_stmt 1 view .LVU42
 159:Core/Src/fmc.c **** 
 149              		.loc 1 159 29 is_stmt 0 view .LVU43
 150 0082 3794     		str	r4, [sp, #220]
 161:Core/Src/fmc.c **** 
 151              		.loc 1 161 3 is_stmt 1 view .LVU44
 152 0084 33A9     		add	r1, sp, #204
 153 0086 1B48     		ldr	r0, .L8+12
 154 0088 FFF7FEFF 		bl	HAL_GPIO_Init
 155              	.LVL3:
 164:Core/Src/fmc.c ****                           |GPIO_PIN_10|GPIO_PIN_9|GPIO_PIN_8;
 156              		.loc 1 164 3 view .LVU45
ARM GAS  C:\Users\blue\AppData\Local\Temp\cceLavav.s 			page 8


 164:Core/Src/fmc.c ****                           |GPIO_PIN_10|GPIO_PIN_9|GPIO_PIN_8;
 157              		.loc 1 164 23 is_stmt 0 view .LVU46
 158 008c 4CF20373 		movw	r3, #50947
 159 0090 3393     		str	r3, [sp, #204]
 166:Core/Src/fmc.c ****   GPIO_InitStruct.Pull = GPIO_NOPULL;
 160              		.loc 1 166 3 is_stmt 1 view .LVU47
 166:Core/Src/fmc.c ****   GPIO_InitStruct.Pull = GPIO_NOPULL;
 161              		.loc 1 166 24 is_stmt 0 view .LVU48
 162 0092 3497     		str	r7, [sp, #208]
 167:Core/Src/fmc.c ****   GPIO_InitStruct.Speed = GPIO_SPEED_FREQ_VERY_HIGH;
 163              		.loc 1 167 3 is_stmt 1 view .LVU49
 167:Core/Src/fmc.c ****   GPIO_InitStruct.Speed = GPIO_SPEED_FREQ_VERY_HIGH;
 164              		.loc 1 167 24 is_stmt 0 view .LVU50
 165 0094 3596     		str	r6, [sp, #212]
 168:Core/Src/fmc.c ****   GPIO_InitStruct.Alternate = GPIO_AF12_FMC;
 166              		.loc 1 168 3 is_stmt 1 view .LVU51
 168:Core/Src/fmc.c ****   GPIO_InitStruct.Alternate = GPIO_AF12_FMC;
 167              		.loc 1 168 25 is_stmt 0 view .LVU52
 168 0096 3695     		str	r5, [sp, #216]
 169:Core/Src/fmc.c **** 
 169              		.loc 1 169 3 is_stmt 1 view .LVU53
 169:Core/Src/fmc.c **** 
 170              		.loc 1 169 29 is_stmt 0 view .LVU54
 171 0098 3794     		str	r4, [sp, #220]
 171:Core/Src/fmc.c **** 
 172              		.loc 1 171 3 is_stmt 1 view .LVU55
 173 009a 33A9     		add	r1, sp, #204
 174 009c 1648     		ldr	r0, .L8+16
 175 009e FFF7FEFF 		bl	HAL_GPIO_Init
 176              	.LVL4:
 174:Core/Src/fmc.c ****                           |GPIO_PIN_5|GPIO_PIN_4|GPIO_PIN_13|GPIO_PIN_14
 177              		.loc 1 174 3 view .LVU56
 174:Core/Src/fmc.c ****                           |GPIO_PIN_5|GPIO_PIN_4|GPIO_PIN_13|GPIO_PIN_14
 178              		.loc 1 174 23 is_stmt 0 view .LVU57
 179 00a2 4FF63F03 		movw	r3, #63551
 180 00a6 3393     		str	r3, [sp, #204]
 177:Core/Src/fmc.c ****   GPIO_InitStruct.Pull = GPIO_NOPULL;
 181              		.loc 1 177 3 is_stmt 1 view .LVU58
 177:Core/Src/fmc.c ****   GPIO_InitStruct.Pull = GPIO_NOPULL;
 182              		.loc 1 177 24 is_stmt 0 view .LVU59
 183 00a8 3497     		str	r7, [sp, #208]
 178:Core/Src/fmc.c ****   GPIO_InitStruct.Speed = GPIO_SPEED_FREQ_VERY_HIGH;
 184              		.loc 1 178 3 is_stmt 1 view .LVU60
 178:Core/Src/fmc.c ****   GPIO_InitStruct.Speed = GPIO_SPEED_FREQ_VERY_HIGH;
 185              		.loc 1 178 24 is_stmt 0 view .LVU61
 186 00aa 3596     		str	r6, [sp, #212]
 179:Core/Src/fmc.c ****   GPIO_InitStruct.Alternate = GPIO_AF12_FMC;
 187              		.loc 1 179 3 is_stmt 1 view .LVU62
 179:Core/Src/fmc.c ****   GPIO_InitStruct.Alternate = GPIO_AF12_FMC;
 188              		.loc 1 179 25 is_stmt 0 view .LVU63
 189 00ac 3695     		str	r5, [sp, #216]
 180:Core/Src/fmc.c **** 
 190              		.loc 1 180 3 is_stmt 1 view .LVU64
 180:Core/Src/fmc.c **** 
 191              		.loc 1 180 29 is_stmt 0 view .LVU65
 192 00ae 3794     		str	r4, [sp, #220]
 182:Core/Src/fmc.c **** 
ARM GAS  C:\Users\blue\AppData\Local\Temp\cceLavav.s 			page 9


 193              		.loc 1 182 3 is_stmt 1 view .LVU66
 194 00b0 33A9     		add	r1, sp, #204
 195 00b2 1248     		ldr	r0, .L8+20
 196 00b4 FFF7FEFF 		bl	HAL_GPIO_Init
 197              	.LVL5:
 185:Core/Src/fmc.c ****   GPIO_InitStruct.Mode = GPIO_MODE_AF_PP;
 198              		.loc 1 185 3 view .LVU67
 185:Core/Src/fmc.c ****   GPIO_InitStruct.Mode = GPIO_MODE_AF_PP;
 199              		.loc 1 185 23 is_stmt 0 view .LVU68
 200 00b8 0123     		movs	r3, #1
 201 00ba 3393     		str	r3, [sp, #204]
 186:Core/Src/fmc.c ****   GPIO_InitStruct.Pull = GPIO_NOPULL;
 202              		.loc 1 186 3 is_stmt 1 view .LVU69
 186:Core/Src/fmc.c ****   GPIO_InitStruct.Pull = GPIO_NOPULL;
 203              		.loc 1 186 24 is_stmt 0 view .LVU70
 204 00bc 3497     		str	r7, [sp, #208]
 187:Core/Src/fmc.c ****   GPIO_InitStruct.Speed = GPIO_SPEED_FREQ_VERY_HIGH;
 205              		.loc 1 187 3 is_stmt 1 view .LVU71
 187:Core/Src/fmc.c ****   GPIO_InitStruct.Speed = GPIO_SPEED_FREQ_VERY_HIGH;
 206              		.loc 1 187 24 is_stmt 0 view .LVU72
 207 00be 3596     		str	r6, [sp, #212]
 188:Core/Src/fmc.c ****   GPIO_InitStruct.Alternate = GPIO_AF12_FMC;
 208              		.loc 1 188 3 is_stmt 1 view .LVU73
 188:Core/Src/fmc.c ****   GPIO_InitStruct.Alternate = GPIO_AF12_FMC;
 209              		.loc 1 188 25 is_stmt 0 view .LVU74
 210 00c0 3695     		str	r5, [sp, #216]
 189:Core/Src/fmc.c **** 
 211              		.loc 1 189 3 is_stmt 1 view .LVU75
 189:Core/Src/fmc.c **** 
 212              		.loc 1 189 29 is_stmt 0 view .LVU76
 213 00c2 3794     		str	r4, [sp, #220]
 191:Core/Src/fmc.c **** 
 214              		.loc 1 191 3 is_stmt 1 view .LVU77
 215 00c4 33A9     		add	r1, sp, #204
 216 00c6 0E48     		ldr	r0, .L8+24
 217 00c8 FFF7FEFF 		bl	HAL_GPIO_Init
 218              	.LVL6:
 194:Core/Src/fmc.c ****   GPIO_InitStruct.Mode = GPIO_MODE_AF_PP;
 219              		.loc 1 194 3 view .LVU78
 194:Core/Src/fmc.c ****   GPIO_InitStruct.Mode = GPIO_MODE_AF_PP;
 220              		.loc 1 194 23 is_stmt 0 view .LVU79
 221 00cc 3394     		str	r4, [sp, #204]
 195:Core/Src/fmc.c ****   GPIO_InitStruct.Pull = GPIO_NOPULL;
 222              		.loc 1 195 3 is_stmt 1 view .LVU80
 195:Core/Src/fmc.c ****   GPIO_InitStruct.Pull = GPIO_NOPULL;
 223              		.loc 1 195 24 is_stmt 0 view .LVU81
 224 00ce 3497     		str	r7, [sp, #208]
 196:Core/Src/fmc.c ****   GPIO_InitStruct.Speed = GPIO_SPEED_FREQ_VERY_HIGH;
 225              		.loc 1 196 3 is_stmt 1 view .LVU82
 196:Core/Src/fmc.c ****   GPIO_InitStruct.Speed = GPIO_SPEED_FREQ_VERY_HIGH;
 226              		.loc 1 196 24 is_stmt 0 view .LVU83
 227 00d0 3596     		str	r6, [sp, #212]
 197:Core/Src/fmc.c ****   GPIO_InitStruct.Alternate = GPIO_AF12_FMC;
 228              		.loc 1 197 3 is_stmt 1 view .LVU84
 197:Core/Src/fmc.c ****   GPIO_InitStruct.Alternate = GPIO_AF12_FMC;
 229              		.loc 1 197 25 is_stmt 0 view .LVU85
 230 00d2 3695     		str	r5, [sp, #216]
ARM GAS  C:\Users\blue\AppData\Local\Temp\cceLavav.s 			page 10


 198:Core/Src/fmc.c **** 
 231              		.loc 1 198 3 is_stmt 1 view .LVU86
 198:Core/Src/fmc.c **** 
 232              		.loc 1 198 29 is_stmt 0 view .LVU87
 233 00d4 3794     		str	r4, [sp, #220]
 200:Core/Src/fmc.c **** 
 234              		.loc 1 200 3 is_stmt 1 view .LVU88
 235 00d6 33A9     		add	r1, sp, #204
 236 00d8 0A48     		ldr	r0, .L8+28
 237 00da FFF7FEFF 		bl	HAL_GPIO_Init
 238              	.LVL7:
 239 00de 9AE7     		b	.L1
 240              	.L7:
  95:Core/Src/fmc.c ****     }
 241              		.loc 1 95 7 view .LVU89
 242 00e0 FFF7FEFF 		bl	Error_Handler
 243              	.LVL8:
 244 00e4 ABE7     		b	.L4
 245              	.L9:
 246 00e6 00BF     		.align	2
 247              	.L8:
 248 00e8 00000000 		.word	.LANCHOR0
 249 00ec 00440258 		.word	1476543488
 250 00f0 00100258 		.word	1476530176
 251 00f4 00180258 		.word	1476532224
 252 00f8 000C0258 		.word	1476529152
 253 00fc 00140258 		.word	1476531200
 254 0100 00080258 		.word	1476528128
 255 0104 001C0258 		.word	1476533248
 256              		.cfi_endproc
 257              	.LFE145:
 259              		.section	.text.HAL_FMC_MspDeInit,"ax",%progbits
 260              		.align	1
 261              		.syntax unified
 262              		.thumb
 263              		.thumb_func
 265              	HAL_FMC_MspDeInit:
 266              	.LFB147:
 206:Core/Src/fmc.c **** 
 207:Core/Src/fmc.c **** void HAL_SDRAM_MspInit(SDRAM_HandleTypeDef* sdramHandle){
 208:Core/Src/fmc.c ****   /* USER CODE BEGIN SDRAM_MspInit 0 */
 209:Core/Src/fmc.c **** 
 210:Core/Src/fmc.c ****   /* USER CODE END SDRAM_MspInit 0 */
 211:Core/Src/fmc.c ****   HAL_FMC_MspInit();
 212:Core/Src/fmc.c ****   /* USER CODE BEGIN SDRAM_MspInit 1 */
 213:Core/Src/fmc.c **** 
 214:Core/Src/fmc.c ****   /* USER CODE END SDRAM_MspInit 1 */
 215:Core/Src/fmc.c **** }
 216:Core/Src/fmc.c **** 
 217:Core/Src/fmc.c **** static uint32_t FMC_DeInitialized = 0;
 218:Core/Src/fmc.c **** 
 219:Core/Src/fmc.c **** static void HAL_FMC_MspDeInit(void){
 267              		.loc 1 219 36 view -0
 268              		.cfi_startproc
 269              		@ args = 0, pretend = 0, frame = 0
 270              		@ frame_needed = 0, uses_anonymous_args = 0
 220:Core/Src/fmc.c ****   /* USER CODE BEGIN FMC_MspDeInit 0 */
ARM GAS  C:\Users\blue\AppData\Local\Temp\cceLavav.s 			page 11


 221:Core/Src/fmc.c **** 
 222:Core/Src/fmc.c ****   /* USER CODE END FMC_MspDeInit 0 */
 223:Core/Src/fmc.c ****   if (FMC_DeInitialized) {
 271              		.loc 1 223 3 view .LVU91
 272              		.loc 1 223 7 is_stmt 0 view .LVU92
 273 0000 154B     		ldr	r3, .L17
 274 0002 1B68     		ldr	r3, [r3]
 275              		.loc 1 223 6 view .LVU93
 276 0004 03B1     		cbz	r3, .L16
 277 0006 7047     		bx	lr
 278              	.L16:
 219:Core/Src/fmc.c ****   /* USER CODE BEGIN FMC_MspDeInit 0 */
 279              		.loc 1 219 36 view .LVU94
 280 0008 10B5     		push	{r4, lr}
 281              	.LCFI4:
 282              		.cfi_def_cfa_offset 8
 283              		.cfi_offset 4, -8
 284              		.cfi_offset 14, -4
 224:Core/Src/fmc.c ****     return;
 225:Core/Src/fmc.c ****   }
 226:Core/Src/fmc.c ****   FMC_DeInitialized = 1;
 285              		.loc 1 226 3 is_stmt 1 view .LVU95
 286              		.loc 1 226 21 is_stmt 0 view .LVU96
 287 000a 0124     		movs	r4, #1
 288 000c 124B     		ldr	r3, .L17
 289 000e 1C60     		str	r4, [r3]
 227:Core/Src/fmc.c ****   /* Peripheral clock enable */
 228:Core/Src/fmc.c ****   __HAL_RCC_FMC_CLK_DISABLE();
 290              		.loc 1 228 3 is_stmt 1 view .LVU97
 291 0010 124A     		ldr	r2, .L17+4
 292 0012 D2F8D430 		ldr	r3, [r2, #212]
 293 0016 23F48053 		bic	r3, r3, #4096
 294 001a C2F8D430 		str	r3, [r2, #212]
 229:Core/Src/fmc.c **** 
 230:Core/Src/fmc.c ****   /** FMC GPIO Configuration
 231:Core/Src/fmc.c ****   PE1   ------> FMC_NBL1
 232:Core/Src/fmc.c ****   PE0   ------> FMC_NBL0
 233:Core/Src/fmc.c ****   PG15   ------> FMC_SDNCAS
 234:Core/Src/fmc.c ****   PD0   ------> FMC_D2
 235:Core/Src/fmc.c ****   PD1   ------> FMC_D3
 236:Core/Src/fmc.c ****   PG8   ------> FMC_SDCLK
 237:Core/Src/fmc.c ****   PF2   ------> FMC_A2
 238:Core/Src/fmc.c ****   PF1   ------> FMC_A1
 239:Core/Src/fmc.c ****   PF0   ------> FMC_A0
 240:Core/Src/fmc.c ****   PG5   ------> FMC_BA1
 241:Core/Src/fmc.c ****   PF3   ------> FMC_A3
 242:Core/Src/fmc.c ****   PG4   ------> FMC_BA0
 243:Core/Src/fmc.c ****   PG2   ------> FMC_A12
 244:Core/Src/fmc.c ****   PF5   ------> FMC_A5
 245:Core/Src/fmc.c ****   PF4   ------> FMC_A4
 246:Core/Src/fmc.c ****   PC0   ------> FMC_SDNWE
 247:Core/Src/fmc.c ****   PH2   ------> FMC_SDCKE0
 248:Core/Src/fmc.c ****   PE10   ------> FMC_D7
 249:Core/Src/fmc.c ****   PH3   ------> FMC_SDNE0
 250:Core/Src/fmc.c ****   PF13   ------> FMC_A7
 251:Core/Src/fmc.c ****   PF14   ------> FMC_A8
 252:Core/Src/fmc.c ****   PE9   ------> FMC_D6
ARM GAS  C:\Users\blue\AppData\Local\Temp\cceLavav.s 			page 12


 253:Core/Src/fmc.c ****   PE11   ------> FMC_D8
 254:Core/Src/fmc.c ****   PD15   ------> FMC_D1
 255:Core/Src/fmc.c ****   PD14   ------> FMC_D0
 256:Core/Src/fmc.c ****   PF12   ------> FMC_A6
 257:Core/Src/fmc.c ****   PF15   ------> FMC_A9
 258:Core/Src/fmc.c ****   PE12   ------> FMC_D9
 259:Core/Src/fmc.c ****   PE15   ------> FMC_D12
 260:Core/Src/fmc.c ****   PF11   ------> FMC_SDNRAS
 261:Core/Src/fmc.c ****   PG0   ------> FMC_A10
 262:Core/Src/fmc.c ****   PE8   ------> FMC_D5
 263:Core/Src/fmc.c ****   PE13   ------> FMC_D10
 264:Core/Src/fmc.c ****   PD10   ------> FMC_D15
 265:Core/Src/fmc.c ****   PD9   ------> FMC_D14
 266:Core/Src/fmc.c ****   PG1   ------> FMC_A11
 267:Core/Src/fmc.c ****   PE7   ------> FMC_D4
 268:Core/Src/fmc.c ****   PE14   ------> FMC_D11
 269:Core/Src/fmc.c ****   PD8   ------> FMC_D13
 270:Core/Src/fmc.c ****   */
 271:Core/Src/fmc.c **** 
 272:Core/Src/fmc.c ****   HAL_GPIO_DeInit(GPIOE, GPIO_PIN_1|GPIO_PIN_0|GPIO_PIN_10|GPIO_PIN_9
 295              		.loc 1 272 3 view .LVU98
 296 001e 4FF68371 		movw	r1, #65411
 297 0022 0F48     		ldr	r0, .L17+8
 298 0024 FFF7FEFF 		bl	HAL_GPIO_DeInit
 299              	.LVL9:
 273:Core/Src/fmc.c ****                           |GPIO_PIN_11|GPIO_PIN_12|GPIO_PIN_15|GPIO_PIN_8
 274:Core/Src/fmc.c ****                           |GPIO_PIN_13|GPIO_PIN_7|GPIO_PIN_14);
 275:Core/Src/fmc.c **** 
 276:Core/Src/fmc.c ****   HAL_GPIO_DeInit(GPIOG, GPIO_PIN_15|GPIO_PIN_8|GPIO_PIN_5|GPIO_PIN_4
 300              		.loc 1 276 3 view .LVU99
 301 0028 48F23711 		movw	r1, #33079
 302 002c 0D48     		ldr	r0, .L17+12
 303 002e FFF7FEFF 		bl	HAL_GPIO_DeInit
 304              	.LVL10:
 277:Core/Src/fmc.c ****                           |GPIO_PIN_2|GPIO_PIN_0|GPIO_PIN_1);
 278:Core/Src/fmc.c **** 
 279:Core/Src/fmc.c ****   HAL_GPIO_DeInit(GPIOD, GPIO_PIN_0|GPIO_PIN_1|GPIO_PIN_15|GPIO_PIN_14
 305              		.loc 1 279 3 view .LVU100
 306 0032 4CF20371 		movw	r1, #50947
 307 0036 0C48     		ldr	r0, .L17+16
 308 0038 FFF7FEFF 		bl	HAL_GPIO_DeInit
 309              	.LVL11:
 280:Core/Src/fmc.c ****                           |GPIO_PIN_10|GPIO_PIN_9|GPIO_PIN_8);
 281:Core/Src/fmc.c **** 
 282:Core/Src/fmc.c ****   HAL_GPIO_DeInit(GPIOF, GPIO_PIN_2|GPIO_PIN_1|GPIO_PIN_0|GPIO_PIN_3
 310              		.loc 1 282 3 view .LVU101
 311 003c 4FF63F01 		movw	r1, #63551
 312 0040 0A48     		ldr	r0, .L17+20
 313 0042 FFF7FEFF 		bl	HAL_GPIO_DeInit
 314              	.LVL12:
 283:Core/Src/fmc.c ****                           |GPIO_PIN_5|GPIO_PIN_4|GPIO_PIN_13|GPIO_PIN_14
 284:Core/Src/fmc.c ****                           |GPIO_PIN_12|GPIO_PIN_15|GPIO_PIN_11);
 285:Core/Src/fmc.c **** 
 286:Core/Src/fmc.c ****   HAL_GPIO_DeInit(GPIOC, GPIO_PIN_0);
 315              		.loc 1 286 3 view .LVU102
 316 0046 2146     		mov	r1, r4
 317 0048 0948     		ldr	r0, .L17+24
ARM GAS  C:\Users\blue\AppData\Local\Temp\cceLavav.s 			page 13


 318 004a FFF7FEFF 		bl	HAL_GPIO_DeInit
 319              	.LVL13:
 287:Core/Src/fmc.c **** 
 288:Core/Src/fmc.c ****   HAL_GPIO_DeInit(GPIOH, GPIO_PIN_2|GPIO_PIN_3);
 320              		.loc 1 288 3 view .LVU103
 321 004e 0C21     		movs	r1, #12
 322 0050 0848     		ldr	r0, .L17+28
 323 0052 FFF7FEFF 		bl	HAL_GPIO_DeInit
 324              	.LVL14:
 289:Core/Src/fmc.c **** 
 290:Core/Src/fmc.c ****   /* USER CODE BEGIN FMC_MspDeInit 1 */
 291:Core/Src/fmc.c **** 
 292:Core/Src/fmc.c ****   /* USER CODE END FMC_MspDeInit 1 */
 293:Core/Src/fmc.c **** }
 325              		.loc 1 293 1 is_stmt 0 view .LVU104
 326 0056 10BD     		pop	{r4, pc}
 327              	.L18:
 328              		.align	2
 329              	.L17:
 330 0058 00000000 		.word	.LANCHOR1
 331 005c 00440258 		.word	1476543488
 332 0060 00100258 		.word	1476530176
 333 0064 00180258 		.word	1476532224
 334 0068 000C0258 		.word	1476529152
 335 006c 00140258 		.word	1476531200
 336 0070 00080258 		.word	1476528128
 337 0074 001C0258 		.word	1476533248
 338              		.cfi_endproc
 339              	.LFE147:
 341              		.section	.text.MX_FMC_Init,"ax",%progbits
 342              		.align	1
 343              		.global	MX_FMC_Init
 344              		.syntax unified
 345              		.thumb
 346              		.thumb_func
 348              	MX_FMC_Init:
 349              	.LFB144:
  32:Core/Src/fmc.c ****   /* USER CODE BEGIN FMC_Init 0 */
 350              		.loc 1 32 1 is_stmt 1 view -0
 351              		.cfi_startproc
 352              		@ args = 0, pretend = 0, frame = 32
 353              		@ frame_needed = 0, uses_anonymous_args = 0
 354 0000 00B5     		push	{lr}
 355              	.LCFI5:
 356              		.cfi_def_cfa_offset 4
 357              		.cfi_offset 14, -4
 358 0002 89B0     		sub	sp, sp, #36
 359              	.LCFI6:
 360              		.cfi_def_cfa_offset 40
  37:Core/Src/fmc.c **** 
 361              		.loc 1 37 3 view .LVU106
  37:Core/Src/fmc.c **** 
 362              		.loc 1 37 27 is_stmt 0 view .LVU107
 363 0004 0023     		movs	r3, #0
 364 0006 0193     		str	r3, [sp, #4]
 365 0008 0293     		str	r3, [sp, #8]
 366 000a 0393     		str	r3, [sp, #12]
ARM GAS  C:\Users\blue\AppData\Local\Temp\cceLavav.s 			page 14


 367 000c 0493     		str	r3, [sp, #16]
 368 000e 0593     		str	r3, [sp, #20]
 369 0010 0693     		str	r3, [sp, #24]
 370 0012 0793     		str	r3, [sp, #28]
  45:Core/Src/fmc.c ****   /* hsdram1.Init */
 371              		.loc 1 45 3 is_stmt 1 view .LVU108
  45:Core/Src/fmc.c ****   /* hsdram1.Init */
 372              		.loc 1 45 20 is_stmt 0 view .LVU109
 373 0014 1548     		ldr	r0, .L23
 374 0016 164A     		ldr	r2, .L23+4
 375 0018 0260     		str	r2, [r0]
  47:Core/Src/fmc.c ****   hsdram1.Init.ColumnBitsNumber = FMC_SDRAM_COLUMN_BITS_NUM_9;
 376              		.loc 1 47 3 is_stmt 1 view .LVU110
  47:Core/Src/fmc.c ****   hsdram1.Init.ColumnBitsNumber = FMC_SDRAM_COLUMN_BITS_NUM_9;
 377              		.loc 1 47 23 is_stmt 0 view .LVU111
 378 001a 4360     		str	r3, [r0, #4]
  48:Core/Src/fmc.c ****   hsdram1.Init.RowBitsNumber = FMC_SDRAM_ROW_BITS_NUM_13;
 379              		.loc 1 48 3 is_stmt 1 view .LVU112
  48:Core/Src/fmc.c ****   hsdram1.Init.RowBitsNumber = FMC_SDRAM_ROW_BITS_NUM_13;
 380              		.loc 1 48 33 is_stmt 0 view .LVU113
 381 001c 0122     		movs	r2, #1
 382 001e 8260     		str	r2, [r0, #8]
  49:Core/Src/fmc.c ****   hsdram1.Init.MemoryDataWidth = FMC_SDRAM_MEM_BUS_WIDTH_16;
 383              		.loc 1 49 3 is_stmt 1 view .LVU114
  49:Core/Src/fmc.c ****   hsdram1.Init.MemoryDataWidth = FMC_SDRAM_MEM_BUS_WIDTH_16;
 384              		.loc 1 49 30 is_stmt 0 view .LVU115
 385 0020 0822     		movs	r2, #8
 386 0022 C260     		str	r2, [r0, #12]
  50:Core/Src/fmc.c ****   hsdram1.Init.InternalBankNumber = FMC_SDRAM_INTERN_BANKS_NUM_4;
 387              		.loc 1 50 3 is_stmt 1 view .LVU116
  50:Core/Src/fmc.c ****   hsdram1.Init.InternalBankNumber = FMC_SDRAM_INTERN_BANKS_NUM_4;
 388              		.loc 1 50 32 is_stmt 0 view .LVU117
 389 0024 1022     		movs	r2, #16
 390 0026 0261     		str	r2, [r0, #16]
  51:Core/Src/fmc.c ****   hsdram1.Init.CASLatency = FMC_SDRAM_CAS_LATENCY_3;
 391              		.loc 1 51 3 is_stmt 1 view .LVU118
  51:Core/Src/fmc.c ****   hsdram1.Init.CASLatency = FMC_SDRAM_CAS_LATENCY_3;
 392              		.loc 1 51 35 is_stmt 0 view .LVU119
 393 0028 4022     		movs	r2, #64
 394 002a 4261     		str	r2, [r0, #20]
  52:Core/Src/fmc.c ****   hsdram1.Init.WriteProtection = FMC_SDRAM_WRITE_PROTECTION_DISABLE;
 395              		.loc 1 52 3 is_stmt 1 view .LVU120
  52:Core/Src/fmc.c ****   hsdram1.Init.WriteProtection = FMC_SDRAM_WRITE_PROTECTION_DISABLE;
 396              		.loc 1 52 27 is_stmt 0 view .LVU121
 397 002c 4FF4C072 		mov	r2, #384
 398 0030 8261     		str	r2, [r0, #24]
  53:Core/Src/fmc.c ****   hsdram1.Init.SDClockPeriod = FMC_SDRAM_CLOCK_PERIOD_2;
 399              		.loc 1 53 3 is_stmt 1 view .LVU122
  53:Core/Src/fmc.c ****   hsdram1.Init.SDClockPeriod = FMC_SDRAM_CLOCK_PERIOD_2;
 400              		.loc 1 53 32 is_stmt 0 view .LVU123
 401 0032 C361     		str	r3, [r0, #28]
  54:Core/Src/fmc.c ****   hsdram1.Init.ReadBurst = FMC_SDRAM_RBURST_ENABLE;
 402              		.loc 1 54 3 is_stmt 1 view .LVU124
  54:Core/Src/fmc.c ****   hsdram1.Init.ReadBurst = FMC_SDRAM_RBURST_ENABLE;
 403              		.loc 1 54 30 is_stmt 0 view .LVU125
 404 0034 4FF40062 		mov	r2, #2048
 405 0038 0262     		str	r2, [r0, #32]
ARM GAS  C:\Users\blue\AppData\Local\Temp\cceLavav.s 			page 15


  55:Core/Src/fmc.c ****   hsdram1.Init.ReadPipeDelay = FMC_SDRAM_RPIPE_DELAY_0;
 406              		.loc 1 55 3 is_stmt 1 view .LVU126
  55:Core/Src/fmc.c ****   hsdram1.Init.ReadPipeDelay = FMC_SDRAM_RPIPE_DELAY_0;
 407              		.loc 1 55 26 is_stmt 0 view .LVU127
 408 003a 4FF48052 		mov	r2, #4096
 409 003e 4262     		str	r2, [r0, #36]
  56:Core/Src/fmc.c ****   /* SdramTiming */
 410              		.loc 1 56 3 is_stmt 1 view .LVU128
  56:Core/Src/fmc.c ****   /* SdramTiming */
 411              		.loc 1 56 30 is_stmt 0 view .LVU129
 412 0040 8362     		str	r3, [r0, #40]
  58:Core/Src/fmc.c ****   SdramTiming.ExitSelfRefreshDelay = 7;
 413              		.loc 1 58 3 is_stmt 1 view .LVU130
  58:Core/Src/fmc.c ****   SdramTiming.ExitSelfRefreshDelay = 7;
 414              		.loc 1 58 33 is_stmt 0 view .LVU131
 415 0042 0223     		movs	r3, #2
 416 0044 0193     		str	r3, [sp, #4]
  59:Core/Src/fmc.c ****   SdramTiming.SelfRefreshTime = 4;
 417              		.loc 1 59 3 is_stmt 1 view .LVU132
  59:Core/Src/fmc.c ****   SdramTiming.SelfRefreshTime = 4;
 418              		.loc 1 59 36 is_stmt 0 view .LVU133
 419 0046 0722     		movs	r2, #7
 420 0048 0292     		str	r2, [sp, #8]
  60:Core/Src/fmc.c ****   SdramTiming.RowCycleDelay = 7;
 421              		.loc 1 60 3 is_stmt 1 view .LVU134
  60:Core/Src/fmc.c ****   SdramTiming.RowCycleDelay = 7;
 422              		.loc 1 60 31 is_stmt 0 view .LVU135
 423 004a 0421     		movs	r1, #4
 424 004c 0391     		str	r1, [sp, #12]
  61:Core/Src/fmc.c ****   SdramTiming.WriteRecoveryTime = 3;
 425              		.loc 1 61 3 is_stmt 1 view .LVU136
  61:Core/Src/fmc.c ****   SdramTiming.WriteRecoveryTime = 3;
 426              		.loc 1 61 29 is_stmt 0 view .LVU137
 427 004e 0492     		str	r2, [sp, #16]
  62:Core/Src/fmc.c ****   SdramTiming.RPDelay = 2;
 428              		.loc 1 62 3 is_stmt 1 view .LVU138
  62:Core/Src/fmc.c ****   SdramTiming.RPDelay = 2;
 429              		.loc 1 62 33 is_stmt 0 view .LVU139
 430 0050 0322     		movs	r2, #3
 431 0052 0592     		str	r2, [sp, #20]
  63:Core/Src/fmc.c ****   SdramTiming.RCDDelay = 2;
 432              		.loc 1 63 3 is_stmt 1 view .LVU140
  63:Core/Src/fmc.c ****   SdramTiming.RCDDelay = 2;
 433              		.loc 1 63 23 is_stmt 0 view .LVU141
 434 0054 0693     		str	r3, [sp, #24]
  64:Core/Src/fmc.c **** 
 435              		.loc 1 64 3 is_stmt 1 view .LVU142
  64:Core/Src/fmc.c **** 
 436              		.loc 1 64 24 is_stmt 0 view .LVU143
 437 0056 0793     		str	r3, [sp, #28]
  66:Core/Src/fmc.c ****   {
 438              		.loc 1 66 3 is_stmt 1 view .LVU144
  66:Core/Src/fmc.c ****   {
 439              		.loc 1 66 7 is_stmt 0 view .LVU145
 440 0058 6944     		add	r1, sp, r1
 441 005a FFF7FEFF 		bl	HAL_SDRAM_Init
 442              	.LVL15:
ARM GAS  C:\Users\blue\AppData\Local\Temp\cceLavav.s 			page 16


  66:Core/Src/fmc.c ****   {
 443              		.loc 1 66 6 view .LVU146
 444 005e 10B9     		cbnz	r0, .L22
 445              	.L19:
  74:Core/Src/fmc.c **** 
 446              		.loc 1 74 1 view .LVU147
 447 0060 09B0     		add	sp, sp, #36
 448              	.LCFI7:
 449              		.cfi_remember_state
 450              		.cfi_def_cfa_offset 4
 451              		@ sp needed
 452 0062 5DF804FB 		ldr	pc, [sp], #4
 453              	.L22:
 454              	.LCFI8:
 455              		.cfi_restore_state
  68:Core/Src/fmc.c ****   }
 456              		.loc 1 68 5 is_stmt 1 view .LVU148
 457 0066 FFF7FEFF 		bl	Error_Handler
 458              	.LVL16:
  74:Core/Src/fmc.c **** 
 459              		.loc 1 74 1 is_stmt 0 view .LVU149
 460 006a F9E7     		b	.L19
 461              	.L24:
 462              		.align	2
 463              	.L23:
 464 006c 00000000 		.word	.LANCHOR2
 465 0070 40410052 		.word	1375748416
 466              		.cfi_endproc
 467              	.LFE144:
 469              		.section	.text.HAL_SDRAM_MspInit,"ax",%progbits
 470              		.align	1
 471              		.global	HAL_SDRAM_MspInit
 472              		.syntax unified
 473              		.thumb
 474              		.thumb_func
 476              	HAL_SDRAM_MspInit:
 477              	.LVL17:
 478              	.LFB146:
 207:Core/Src/fmc.c ****   /* USER CODE BEGIN SDRAM_MspInit 0 */
 479              		.loc 1 207 57 is_stmt 1 view -0
 480              		.cfi_startproc
 481              		@ args = 0, pretend = 0, frame = 0
 482              		@ frame_needed = 0, uses_anonymous_args = 0
 207:Core/Src/fmc.c ****   /* USER CODE BEGIN SDRAM_MspInit 0 */
 483              		.loc 1 207 57 is_stmt 0 view .LVU151
 484 0000 08B5     		push	{r3, lr}
 485              	.LCFI9:
 486              		.cfi_def_cfa_offset 8
 487              		.cfi_offset 3, -8
 488              		.cfi_offset 14, -4
 211:Core/Src/fmc.c ****   /* USER CODE BEGIN SDRAM_MspInit 1 */
 489              		.loc 1 211 3 is_stmt 1 view .LVU152
 490 0002 FFF7FEFF 		bl	HAL_FMC_MspInit
 491              	.LVL18:
 215:Core/Src/fmc.c **** 
 492              		.loc 1 215 1 is_stmt 0 view .LVU153
 493 0006 08BD     		pop	{r3, pc}
ARM GAS  C:\Users\blue\AppData\Local\Temp\cceLavav.s 			page 17


 494              		.cfi_endproc
 495              	.LFE146:
 497              		.section	.text.HAL_SDRAM_MspDeInit,"ax",%progbits
 498              		.align	1
 499              		.global	HAL_SDRAM_MspDeInit
 500              		.syntax unified
 501              		.thumb
 502              		.thumb_func
 504              	HAL_SDRAM_MspDeInit:
 505              	.LVL19:
 506              	.LFB148:
 294:Core/Src/fmc.c **** 
 295:Core/Src/fmc.c **** void HAL_SDRAM_MspDeInit(SDRAM_HandleTypeDef* sdramHandle){
 507              		.loc 1 295 59 is_stmt 1 view -0
 508              		.cfi_startproc
 509              		@ args = 0, pretend = 0, frame = 0
 510              		@ frame_needed = 0, uses_anonymous_args = 0
 511              		.loc 1 295 59 is_stmt 0 view .LVU155
 512 0000 08B5     		push	{r3, lr}
 513              	.LCFI10:
 514              		.cfi_def_cfa_offset 8
 515              		.cfi_offset 3, -8
 516              		.cfi_offset 14, -4
 296:Core/Src/fmc.c ****   /* USER CODE BEGIN SDRAM_MspDeInit 0 */
 297:Core/Src/fmc.c **** 
 298:Core/Src/fmc.c ****   /* USER CODE END SDRAM_MspDeInit 0 */
 299:Core/Src/fmc.c ****   HAL_FMC_MspDeInit();
 517              		.loc 1 299 3 is_stmt 1 view .LVU156
 518 0002 FFF7FEFF 		bl	HAL_FMC_MspDeInit
 519              	.LVL20:
 300:Core/Src/fmc.c ****   /* USER CODE BEGIN SDRAM_MspDeInit 1 */
 301:Core/Src/fmc.c **** 
 302:Core/Src/fmc.c ****   /* USER CODE END SDRAM_MspDeInit 1 */
 303:Core/Src/fmc.c **** }
 520              		.loc 1 303 1 is_stmt 0 view .LVU157
 521 0006 08BD     		pop	{r3, pc}
 522              		.cfi_endproc
 523              	.LFE148:
 525              		.global	hsdram1
 526              		.section	.bss.FMC_DeInitialized,"aw",%nobits
 527              		.align	2
 528              		.set	.LANCHOR1,. + 0
 531              	FMC_DeInitialized:
 532 0000 00000000 		.space	4
 533              		.section	.bss.FMC_Initialized,"aw",%nobits
 534              		.align	2
 535              		.set	.LANCHOR0,. + 0
 538              	FMC_Initialized:
 539 0000 00000000 		.space	4
 540              		.section	.bss.hsdram1,"aw",%nobits
 541              		.align	2
 542              		.set	.LANCHOR2,. + 0
 545              	hsdram1:
 546 0000 00000000 		.space	52
 546      00000000 
 546      00000000 
 546      00000000 
ARM GAS  C:\Users\blue\AppData\Local\Temp\cceLavav.s 			page 18


 546      00000000 
 547              		.text
 548              	.Letext0:
 549              		.file 2 "d:\\rm\\arm-gnu-toolchian\\arm-none-eabi\\include\\machine\\_default_types.h"
 550              		.file 3 "d:\\rm\\arm-gnu-toolchian\\arm-none-eabi\\include\\sys\\_stdint.h"
 551              		.file 4 "Drivers/CMSIS/Device/ST/STM32H7xx/Include/stm32h743xx.h"
 552              		.file 5 "Drivers/STM32H7xx_HAL_Driver/Inc/stm32h7xx_hal_def.h"
 553              		.file 6 "Drivers/STM32H7xx_HAL_Driver/Inc/stm32h7xx_hal_rcc_ex.h"
 554              		.file 7 "Drivers/STM32H7xx_HAL_Driver/Inc/stm32h7xx_hal_gpio.h"
 555              		.file 8 "Drivers/STM32H7xx_HAL_Driver/Inc/stm32h7xx_hal_mdma.h"
 556              		.file 9 "Drivers/STM32H7xx_HAL_Driver/Inc/stm32h7xx_ll_fmc.h"
 557              		.file 10 "Drivers/STM32H7xx_HAL_Driver/Inc/stm32h7xx_hal_sdram.h"
 558              		.file 11 "Core/Inc/main.h"
 559              		.file 12 "Core/Inc/fmc.h"
 560              		.file 13 "<built-in>"
ARM GAS  C:\Users\blue\AppData\Local\Temp\cceLavav.s 			page 19

