ARM GAS  C:\Users\blue\AppData\Local\Temp\cccuzzkq.s 			page 1


   1              		.cpu cortex-m7
   2              		.arch armv7e-m
   3              		.fpu fpv5-d16
   4              		.eabi_attribute 28, 1
   5              		.eabi_attribute 20, 1
   6              		.eabi_attribute 21, 1
   7              		.eabi_attribute 23, 3
   8              		.eabi_attribute 24, 1
   9              		.eabi_attribute 25, 1
  10              		.eabi_attribute 26, 1
  11              		.eabi_attribute 30, 1
  12              		.eabi_attribute 34, 1
  13              		.eabi_attribute 18, 4
  14              		.file	"mp3.c"
  15              		.text
  16              	.Ltext0:
  17              		.cfi_sections	.debug_frame
  18              		.section	.text.MP3_Init,"ax",%progbits
  19              		.align	1
  20              		.global	MP3_Init
  21              		.syntax unified
  22              		.thumb
  23              		.thumb_func
  25              	MP3_Init:
  26              	.LVL0:
  27              	.LFB144:
  28              		.file 1 "modules/mp3/mp3.c"
   1:modules/mp3/mp3.c **** #include "mp3.h"
   2:modules/mp3/mp3.c **** #include "bsp_usart.h"
   3:modules/mp3/mp3.c **** 
   4:modules/mp3/mp3.c **** #define DROUGHT_BUFF_LEN 8
   5:modules/mp3/mp3.c **** static USARTInstance *mp3_instance;
   6:modules/mp3/mp3.c **** static uint8_t slight[DROUGHT_BUFF_LEN] = {0x7E, 0x04, 0x45, 0x00, 0x01, 0xEF, 0x0D, 0x0A};  // 轻
   7:modules/mp3/mp3.c **** static uint8_t general[DROUGHT_BUFF_LEN] = {0x7E, 0x04, 0x45, 0x00, 0x02, 0xEF, 0x0D, 0x0A}; // 一
   8:modules/mp3/mp3.c **** static uint8_t serious[DROUGHT_BUFF_LEN] = {0x7E, 0x04, 0x45, 0x00, 0x03, 0xEF, 0x0D, 0x0A}; // 严
   9:modules/mp3/mp3.c **** 
  10:modules/mp3/mp3.c **** void MP3_Init(UART_HandleTypeDef *mp3_usart_handle)
  11:modules/mp3/mp3.c **** {
  29              		.loc 1 11 1 view -0
  30              		.cfi_startproc
  31              		@ args = 0, pretend = 0, frame = 16
  32              		@ frame_needed = 0, uses_anonymous_args = 0
  33              		.loc 1 11 1 is_stmt 0 view .LVU1
  34 0000 00B5     		push	{lr}
  35              	.LCFI0:
  36              		.cfi_def_cfa_offset 4
  37              		.cfi_offset 14, -4
  38 0002 85B0     		sub	sp, sp, #20
  39              	.LCFI1:
  40              		.cfi_def_cfa_offset 24
  12:modules/mp3/mp3.c ****     USART_Init_Config_s conf;
  41              		.loc 1 12 5 is_stmt 1 view .LVU2
  13:modules/mp3/mp3.c ****     conf.module_callback = NULL; // 不需要接收
  42              		.loc 1 13 5 view .LVU3
  43              		.loc 1 13 26 is_stmt 0 view .LVU4
  44 0004 0023     		movs	r3, #0
  45 0006 0393     		str	r3, [sp, #12]
ARM GAS  C:\Users\blue\AppData\Local\Temp\cccuzzkq.s 			page 2


  14:modules/mp3/mp3.c ****     conf.recv_buff_size = 0;
  46              		.loc 1 14 5 is_stmt 1 view .LVU5
  47              		.loc 1 14 25 is_stmt 0 view .LVU6
  48 0008 8DF80430 		strb	r3, [sp, #4]
  15:modules/mp3/mp3.c ****     conf.usart_handle = mp3_usart_handle;
  49              		.loc 1 15 5 is_stmt 1 view .LVU7
  50              		.loc 1 15 23 is_stmt 0 view .LVU8
  51 000c 0290     		str	r0, [sp, #8]
  16:modules/mp3/mp3.c ****     mp3_instance = USARTRegister(&conf);
  52              		.loc 1 16 5 is_stmt 1 view .LVU9
  53              		.loc 1 16 20 is_stmt 0 view .LVU10
  54 000e 01A8     		add	r0, sp, #4
  55              	.LVL1:
  56              		.loc 1 16 20 view .LVU11
  57 0010 FFF7FEFF 		bl	USARTRegister
  58              	.LVL2:
  59              		.loc 1 16 18 view .LVU12
  60 0014 024B     		ldr	r3, .L3
  61 0016 1860     		str	r0, [r3]
  17:modules/mp3/mp3.c ****     return;
  62              		.loc 1 17 5 is_stmt 1 view .LVU13
  18:modules/mp3/mp3.c **** }
  63              		.loc 1 18 1 is_stmt 0 view .LVU14
  64 0018 05B0     		add	sp, sp, #20
  65              	.LCFI2:
  66              		.cfi_def_cfa_offset 4
  67              		@ sp needed
  68 001a 5DF804FB 		ldr	pc, [sp], #4
  69              	.L4:
  70 001e 00BF     		.align	2
  71              	.L3:
  72 0020 00000000 		.word	.LANCHOR0
  73              		.cfi_endproc
  74              	.LFE144:
  76              		.section	.text.MP3_broadcast,"ax",%progbits
  77              		.align	1
  78              		.global	MP3_broadcast
  79              		.syntax unified
  80              		.thumb
  81              		.thumb_func
  83              	MP3_broadcast:
  84              	.LVL3:
  85              	.LFB145:
  19:modules/mp3/mp3.c **** // 语音播报
  20:modules/mp3/mp3.c **** void MP3_broadcast(Drought_Info_e info)
  21:modules/mp3/mp3.c **** {
  86              		.loc 1 21 1 is_stmt 1 view -0
  87              		.cfi_startproc
  88              		@ args = 0, pretend = 0, frame = 0
  89              		@ frame_needed = 0, uses_anonymous_args = 0
  90              		.loc 1 21 1 is_stmt 0 view .LVU16
  91 0000 08B5     		push	{r3, lr}
  92              	.LCFI3:
  93              		.cfi_def_cfa_offset 8
  94              		.cfi_offset 3, -8
  95              		.cfi_offset 14, -4
  22:modules/mp3/mp3.c ****     switch (info)
ARM GAS  C:\Users\blue\AppData\Local\Temp\cccuzzkq.s 			page 3


  96              		.loc 1 22 5 is_stmt 1 view .LVU17
  97 0002 0228     		cmp	r0, #2
  98 0004 0CD0     		beq	.L6
  99 0006 0328     		cmp	r0, #3
 100 0008 12D0     		beq	.L7
 101 000a 0128     		cmp	r0, #1
 102 000c 00D0     		beq	.L10
 103              	.LVL4:
 104              	.L5:
  23:modules/mp3/mp3.c ****     {
  24:modules/mp3/mp3.c ****     case SLIGHT:
  25:modules/mp3/mp3.c ****         USARTSend(mp3_instance, slight, DROUGHT_BUFF_LEN, USART_TRANSFER_IT);
  26:modules/mp3/mp3.c ****         break;
  27:modules/mp3/mp3.c ****     case GENERAL:
  28:modules/mp3/mp3.c ****         USARTSend(mp3_instance, general, DROUGHT_BUFF_LEN, USART_TRANSFER_IT);
  29:modules/mp3/mp3.c ****         break;
  30:modules/mp3/mp3.c ****     case SERIOUS:
  31:modules/mp3/mp3.c ****         USARTSend(mp3_instance, serious, DROUGHT_BUFF_LEN, USART_TRANSFER_IT);
  32:modules/mp3/mp3.c ****         break;
  33:modules/mp3/mp3.c ****     default:
  34:modules/mp3/mp3.c ****         break;
  35:modules/mp3/mp3.c ****     }
  36:modules/mp3/mp3.c **** }
 105              		.loc 1 36 1 is_stmt 0 view .LVU18
 106 000e 08BD     		pop	{r3, pc}
 107              	.LVL5:
 108              	.L10:
  25:modules/mp3/mp3.c ****         break;
 109              		.loc 1 25 9 is_stmt 1 view .LVU19
 110 0010 0223     		movs	r3, #2
 111 0012 0822     		movs	r2, #8
 112 0014 0A49     		ldr	r1, .L11
 113 0016 0B48     		ldr	r0, .L11+4
 114              	.LVL6:
  25:modules/mp3/mp3.c ****         break;
 115              		.loc 1 25 9 is_stmt 0 view .LVU20
 116 0018 0068     		ldr	r0, [r0]
 117 001a FFF7FEFF 		bl	USARTSend
 118              	.LVL7:
  26:modules/mp3/mp3.c ****     case GENERAL:
 119              		.loc 1 26 9 is_stmt 1 view .LVU21
 120 001e F6E7     		b	.L5
 121              	.LVL8:
 122              	.L6:
  28:modules/mp3/mp3.c ****         break;
 123              		.loc 1 28 9 view .LVU22
 124 0020 0223     		movs	r3, #2
 125 0022 0822     		movs	r2, #8
 126 0024 0849     		ldr	r1, .L11+8
 127 0026 0748     		ldr	r0, .L11+4
 128              	.LVL9:
  28:modules/mp3/mp3.c ****         break;
 129              		.loc 1 28 9 is_stmt 0 view .LVU23
 130 0028 0068     		ldr	r0, [r0]
 131 002a FFF7FEFF 		bl	USARTSend
 132              	.LVL10:
  29:modules/mp3/mp3.c ****     case SERIOUS:
ARM GAS  C:\Users\blue\AppData\Local\Temp\cccuzzkq.s 			page 4


 133              		.loc 1 29 9 is_stmt 1 view .LVU24
 134 002e EEE7     		b	.L5
 135              	.LVL11:
 136              	.L7:
  31:modules/mp3/mp3.c ****         break;
 137              		.loc 1 31 9 view .LVU25
 138 0030 0223     		movs	r3, #2
 139 0032 0822     		movs	r2, #8
 140 0034 0549     		ldr	r1, .L11+12
 141 0036 0348     		ldr	r0, .L11+4
 142              	.LVL12:
  31:modules/mp3/mp3.c ****         break;
 143              		.loc 1 31 9 is_stmt 0 view .LVU26
 144 0038 0068     		ldr	r0, [r0]
 145 003a FFF7FEFF 		bl	USARTSend
 146              	.LVL13:
  32:modules/mp3/mp3.c ****     default:
 147              		.loc 1 32 9 is_stmt 1 view .LVU27
 148              		.loc 1 36 1 is_stmt 0 view .LVU28
 149 003e E6E7     		b	.L5
 150              	.L12:
 151              		.align	2
 152              	.L11:
 153 0040 00000000 		.word	.LANCHOR1
 154 0044 00000000 		.word	.LANCHOR0
 155 0048 00000000 		.word	.LANCHOR2
 156 004c 00000000 		.word	.LANCHOR3
 157              		.cfi_endproc
 158              	.LFE145:
 160              		.section	.bss.mp3_instance,"aw",%nobits
 161              		.align	2
 162              		.set	.LANCHOR0,. + 0
 165              	mp3_instance:
 166 0000 00000000 		.space	4
 167              		.section	.data.general,"aw"
 168              		.align	2
 169              		.set	.LANCHOR2,. + 0
 172              	general:
 173 0000 7E044500 		.ascii	"~\004E\000\002\357\015\012"
 173      02EF0D0A 
 174              		.section	.data.serious,"aw"
 175              		.align	2
 176              		.set	.LANCHOR3,. + 0
 179              	serious:
 180 0000 7E044500 		.ascii	"~\004E\000\003\357\015\012"
 180      03EF0D0A 
 181              		.section	.data.slight,"aw"
 182              		.align	2
 183              		.set	.LANCHOR1,. + 0
 186              	slight:
 187 0000 7E044500 		.ascii	"~\004E\000\001\357\015\012"
 187      01EF0D0A 
 188              		.text
 189              	.Letext0:
 190              		.file 2 "d:\\rm\\arm-gnu-toolchian\\arm-none-eabi\\include\\machine\\_default_types.h"
 191              		.file 3 "d:\\rm\\arm-gnu-toolchian\\arm-none-eabi\\include\\sys\\_stdint.h"
 192              		.file 4 "Drivers/CMSIS/Device/ST/STM32H7xx/Include/stm32h743xx.h"
ARM GAS  C:\Users\blue\AppData\Local\Temp\cccuzzkq.s 			page 5


 193              		.file 5 "d:\\rm\\arm-gnu-toolchian\\lib\\gcc\\arm-none-eabi\\10.3.1\\include\\stddef.h"
 194              		.file 6 "Drivers/STM32H7xx_HAL_Driver/Inc/stm32h7xx_hal_def.h"
 195              		.file 7 "Drivers/STM32H7xx_HAL_Driver/Inc/stm32h7xx_hal_dma.h"
 196              		.file 8 "Drivers/STM32H7xx_HAL_Driver/Inc/stm32h7xx_hal_uart.h"
 197              		.file 9 "application/robot_def.h"
 198              		.file 10 "bsp/usart/bsp_usart.h"
ARM GAS  C:\Users\blue\AppData\Local\Temp\cccuzzkq.s 			page 6

