ARM GAS  C:\Users\blue\AppData\Local\Temp\ccVuv69n.s 			page 1


   1              		.cpu cortex-m7
   2              		.arch armv7e-m
   3              		.fpu fpv5-d16
   4              		.eabi_attribute 28, 1
   5              		.eabi_attribute 20, 1
   6              		.eabi_attribute 21, 1
   7              		.eabi_attribute 23, 3
   8              		.eabi_attribute 24, 1
   9              		.eabi_attribute 25, 1
  10              		.eabi_attribute 26, 1
  11              		.eabi_attribute 30, 1
  12              		.eabi_attribute 34, 1
  13              		.eabi_attribute 18, 4
  14              		.file	"ops.c"
  15              		.text
  16              	.Ltext0:
  17              		.cfi_sections	.debug_frame
  18              		.section	.text.OPS_data_process,"ax",%progbits
  19              		.align	1
  20              		.syntax unified
  21              		.thumb
  22              		.thumb_func
  24              	OPS_data_process:
  25              	.LFB144:
  26              		.file 1 "modules/ops/ops.c"
   1:modules/ops/ops.c **** #include "ops.h"
   2:modules/ops/ops.c **** #include "bsp_usart.h"
   3:modules/ops/ops.c **** #include "daemon.h"
   4:modules/ops/ops.c **** #include "memory.h"
   5:modules/ops/ops.c **** /***
   6:modules/ops/ops.c ****  * @note ops的y轴(front)位0度，逆时针方向为正方向
   7:modules/ops/ops.c ****  */
   8:modules/ops/ops.c **** #define OPS_FRAME_SIZE 28 // 2 + 24 + 2
   9:modules/ops/ops.c **** #define OPS_FRAME_HEAD 0x0D0A
  10:modules/ops/ops.c **** #define OPS_FRAME_TAIL 0x0A0D
  11:modules/ops/ops.c **** static OPS_data_t *ops_data;
  12:modules/ops/ops.c **** static USARTInstance *ops_instance;
  13:modules/ops/ops.c **** static DaemonInstance *ops_daemon_instance;
  14:modules/ops/ops.c **** static OPS ops_data_buff;
  15:modules/ops/ops.c **** 
  16:modules/ops/ops.c **** static void OPS_data_process(void)
  17:modules/ops/ops.c **** {
  27              		.loc 1 17 1 view -0
  28              		.cfi_startproc
  29              		@ args = 0, pretend = 0, frame = 0
  30              		@ frame_needed = 0, uses_anonymous_args = 0
  31              		@ link register save eliminated.
  18:modules/ops/ops.c ****     // 转弯处理，顺时针为正
  19:modules/ops/ops.c ****     if (ops_data->OPS_heading > 170 && ops_data_buff.ActVal[0] < -170)
  32              		.loc 1 19 5 view .LVU1
  33              		.loc 1 19 17 is_stmt 0 view .LVU2
  34 0000 0023     		movs	r3, #0
  35 0002 D3ED027A 		vldr.32	s15, [r3, #8]
  36              		.loc 1 19 8 view .LVU3
  37 0006 9FED227A 		vldr.32	s14, .L13
  38 000a F4EEC77A 		vcmpe.f32	s15, s14
  39 000e F1EE10FA 		vmrs	APSR_nzcv, FPSCR
ARM GAS  C:\Users\blue\AppData\Local\Temp\ccVuv69n.s 			page 2


  40 0012 27DD     		ble	.L2
  41              		.loc 1 19 60 discriminator 1 view .LVU4
  42 0014 1F4B     		ldr	r3, .L13+4
  43 0016 D3ED006A 		vldr.32	s13, [r3]
  44              		.loc 1 19 37 discriminator 1 view .LVU5
  45 001a 9FED1F7A 		vldr.32	s14, .L13+8
  46 001e F4EEC76A 		vcmpe.f32	s13, s14
  47 0022 F1EE10FA 		vmrs	APSR_nzcv, FPSCR
  48 0026 1DD5     		bpl	.L2
  20:modules/ops/ops.c ****     {
  21:modules/ops/ops.c ****         ops_data->OPS_ring++;
  49              		.loc 1 21 9 is_stmt 1 view .LVU6
  50              		.loc 1 21 17 is_stmt 0 view .LVU7
  51 0028 0022     		movs	r2, #0
  52 002a D368     		ldr	r3, [r2, #12]
  53              		.loc 1 21 27 view .LVU8
  54 002c 0133     		adds	r3, r3, #1
  55 002e D360     		str	r3, [r2, #12]
  56              	.L5:
  22:modules/ops/ops.c ****     }
  23:modules/ops/ops.c ****     else if (ops_data->OPS_heading < -170 && ops_data_buff.ActVal[0] > 170)
  24:modules/ops/ops.c ****     {
  25:modules/ops/ops.c ****         ops_data->OPS_ring--;
  26:modules/ops/ops.c ****     }
  27:modules/ops/ops.c ****     ops_data->OPS_heading = ops_data_buff.ActVal[0];
  57              		.loc 1 27 5 is_stmt 1 view .LVU9
  58              		.loc 1 27 49 is_stmt 0 view .LVU10
  59 0030 184A     		ldr	r2, .L13+4
  60 0032 D2ED007A 		vldr.32	s15, [r2]
  61              		.loc 1 27 27 view .LVU11
  62 0036 0023     		movs	r3, #0
  63 0038 C3ED027A 		vstr.32	s15, [r3, #8]
  28:modules/ops/ops.c ****     ops_data->OPS_x = ops_data_buff.ActVal[3];
  64              		.loc 1 28 5 is_stmt 1 view .LVU12
  65              		.loc 1 28 43 is_stmt 0 view .LVU13
  66 003c D168     		ldr	r1, [r2, #12]	@ float
  67              		.loc 1 28 21 view .LVU14
  68 003e 1960     		str	r1, [r3]	@ float
  29:modules/ops/ops.c ****     ops_data->OPS_y = ops_data_buff.ActVal[4];
  69              		.loc 1 29 5 is_stmt 1 view .LVU15
  70              		.loc 1 29 43 is_stmt 0 view .LVU16
  71 0040 92ED047A 		vldr.32	s14, [r2, #16]
  72              		.loc 1 29 21 view .LVU17
  73 0044 83ED017A 		vstr.32	s14, [r3, #4]
  30:modules/ops/ops.c ****     if (ops_data->OPS_heading + ops_data->OPS_y + ops_data->OPS_heading != 0 && ops_data->OPS_Init_
  74              		.loc 1 30 5 is_stmt 1 view .LVU18
  75              		.loc 1 30 31 is_stmt 0 view .LVU19
  76 0048 37EE877A 		vadd.f32	s14, s15, s14
  77              		.loc 1 30 49 view .LVU20
  78 004c 77EE877A 		vadd.f32	s15, s15, s14
  79              		.loc 1 30 8 view .LVU21
  80 0050 F5EE407A 		vcmp.f32	s15, #0
  81 0054 F1EE10FA 		vmrs	APSR_nzcv, FPSCR
  82 0058 03D0     		beq	.L1
  83              		.loc 1 30 89 discriminator 1 view .LVU22
  84 005a 1B7C     		ldrb	r3, [r3, #16]	@ zero_extendqisi2
  85              		.loc 1 30 78 discriminator 1 view .LVU23
ARM GAS  C:\Users\blue\AppData\Local\Temp\ccVuv69n.s 			page 3


  86 005c 0BB9     		cbnz	r3, .L1
  31:modules/ops/ops.c ****     {
  32:modules/ops/ops.c ****         ops_data->OPS_Init_Flag = 1;
  87              		.loc 1 32 9 is_stmt 1 view .LVU24
  88              		.loc 1 32 33 is_stmt 0 view .LVU25
  89 005e 0122     		movs	r2, #1
  90 0060 1A74     		strb	r2, [r3, #16]
  91              	.L1:
  33:modules/ops/ops.c ****     }
  34:modules/ops/ops.c **** }
  92              		.loc 1 34 1 view .LVU26
  93 0062 7047     		bx	lr
  94              	.L2:
  23:modules/ops/ops.c ****     {
  95              		.loc 1 23 10 is_stmt 1 view .LVU27
  23:modules/ops/ops.c ****     {
  96              		.loc 1 23 13 is_stmt 0 view .LVU28
  97 0064 9FED0C7A 		vldr.32	s14, .L13+8
  98 0068 F4EEC77A 		vcmpe.f32	s15, s14
  99 006c F1EE10FA 		vmrs	APSR_nzcv, FPSCR
 100 0070 DED5     		bpl	.L5
  23:modules/ops/ops.c ****     {
 101              		.loc 1 23 66 discriminator 1 view .LVU29
 102 0072 084B     		ldr	r3, .L13+4
 103 0074 93ED007A 		vldr.32	s14, [r3]
  23:modules/ops/ops.c ****     {
 104              		.loc 1 23 43 discriminator 1 view .LVU30
 105 0078 DFED057A 		vldr.32	s15, .L13
 106 007c B4EEE77A 		vcmpe.f32	s14, s15
 107 0080 F1EE10FA 		vmrs	APSR_nzcv, FPSCR
 108 0084 D4DD     		ble	.L5
  25:modules/ops/ops.c ****     }
 109              		.loc 1 25 9 is_stmt 1 view .LVU31
  25:modules/ops/ops.c ****     }
 110              		.loc 1 25 17 is_stmt 0 view .LVU32
 111 0086 0022     		movs	r2, #0
 112 0088 D368     		ldr	r3, [r2, #12]
  25:modules/ops/ops.c ****     }
 113              		.loc 1 25 27 view .LVU33
 114 008a 013B     		subs	r3, r3, #1
 115 008c D360     		str	r3, [r2, #12]
 116 008e CFE7     		b	.L5
 117              	.L14:
 118              		.align	2
 119              	.L13:
 120 0090 00002A43 		.word	1126825984
 121 0094 00000000 		.word	.LANCHOR0
 122 0098 00002AC3 		.word	-1020657664
 123              		.cfi_endproc
 124              	.LFE144:
 126              		.section	.text.OpsLostCallback,"ax",%progbits
 127              		.align	1
 128              		.syntax unified
 129              		.thumb
 130              		.thumb_func
 132              	OpsLostCallback:
 133              	.LVL0:
ARM GAS  C:\Users\blue\AppData\Local\Temp\ccVuv69n.s 			page 4


 134              	.LFB146:
  35:modules/ops/ops.c **** static void OPSRxCallback(UART_HandleTypeDef *huart, uint16_t size)
  36:modules/ops/ops.c **** {
  37:modules/ops/ops.c ****     DaemonReload(ops_daemon_instance);
  38:modules/ops/ops.c ****     if (ops_instance->recv_buff[0] == (uint8_t)(OPS_FRAME_HEAD >> 8) && ops_instance->recv_buff[1] 
  39:modules/ops/ops.c ****     {
  40:modules/ops/ops.c ****         memcpy(ops_data_buff.data, &ops_instance->recv_buff[2], 24);
  41:modules/ops/ops.c ****         OPS_data_process();
  42:modules/ops/ops.c ****     }
  43:modules/ops/ops.c **** }
  44:modules/ops/ops.c **** static void OpsLostCallback(void *id)
  45:modules/ops/ops.c **** {
 135              		.loc 1 45 1 is_stmt 1 view -0
 136              		.cfi_startproc
 137              		@ args = 0, pretend = 0, frame = 0
 138              		@ frame_needed = 0, uses_anonymous_args = 0
 139              		.loc 1 45 1 is_stmt 0 view .LVU35
 140 0000 10B5     		push	{r4, lr}
 141              	.LCFI0:
 142              		.cfi_def_cfa_offset 8
 143              		.cfi_offset 4, -8
 144              		.cfi_offset 14, -4
  46:modules/ops/ops.c ****     USARTServiceInit(ops_instance);
 145              		.loc 1 46 5 is_stmt 1 view .LVU36
 146 0002 084C     		ldr	r4, .L17
 147 0004 2068     		ldr	r0, [r4]
 148              	.LVL1:
 149              		.loc 1 46 5 is_stmt 0 view .LVU37
 150 0006 FFF7FEFF 		bl	USARTServiceInit
 151              	.LVL2:
  47:modules/ops/ops.c ****     memset(ops_instance->recv_buff, 0, ops_instance->recv_buff_size);
 152              		.loc 1 47 5 is_stmt 1 view .LVU38
 153              		.loc 1 47 24 is_stmt 0 view .LVU39
 154 000a 2368     		ldr	r3, [r4]
 155              		.loc 1 47 5 view .LVU40
 156 000c 5A68     		ldr	r2, [r3, #4]
 157 000e 0021     		movs	r1, #0
 158 0010 1868     		ldr	r0, [r3]
 159 0012 FFF7FEFF 		bl	memset
 160              	.LVL3:
  48:modules/ops/ops.c ****     memset(ops_data, 0, sizeof(*ops_data));
 161              		.loc 1 48 5 is_stmt 1 view .LVU41
 162 0016 1422     		movs	r2, #20
 163 0018 0021     		movs	r1, #0
 164 001a 0846     		mov	r0, r1
 165 001c FFF7FEFF 		bl	memset
 166              	.LVL4:
  49:modules/ops/ops.c ****     ops_data->OPS_ring = 0;
 167              		.loc 1 49 5 view .LVU42
  50:modules/ops/ops.c ****     ops_data->OPS_Init_Flag = 0;
 168              		.loc 1 50 5 view .LVU43
  51:modules/ops/ops.c **** }
 169              		.loc 1 51 1 is_stmt 0 view .LVU44
 170 0020 10BD     		pop	{r4, pc}
 171              	.L18:
 172 0022 00BF     		.align	2
 173              	.L17:
ARM GAS  C:\Users\blue\AppData\Local\Temp\ccVuv69n.s 			page 5


 174 0024 00000000 		.word	.LANCHOR1
 175              		.cfi_endproc
 176              	.LFE146:
 178              		.section	.text.OPSRxCallback,"ax",%progbits
 179              		.align	1
 180              		.syntax unified
 181              		.thumb
 182              		.thumb_func
 184              	OPSRxCallback:
 185              	.LVL5:
 186              	.LFB145:
  36:modules/ops/ops.c ****     DaemonReload(ops_daemon_instance);
 187              		.loc 1 36 1 is_stmt 1 view -0
 188              		.cfi_startproc
 189              		@ args = 0, pretend = 0, frame = 0
 190              		@ frame_needed = 0, uses_anonymous_args = 0
  36:modules/ops/ops.c ****     DaemonReload(ops_daemon_instance);
 191              		.loc 1 36 1 is_stmt 0 view .LVU46
 192 0000 38B5     		push	{r3, r4, r5, lr}
 193              	.LCFI1:
 194              		.cfi_def_cfa_offset 16
 195              		.cfi_offset 3, -16
 196              		.cfi_offset 4, -12
 197              		.cfi_offset 5, -8
 198              		.cfi_offset 14, -4
  37:modules/ops/ops.c ****     if (ops_instance->recv_buff[0] == (uint8_t)(OPS_FRAME_HEAD >> 8) && ops_instance->recv_buff[1] 
 199              		.loc 1 37 5 is_stmt 1 view .LVU47
 200 0002 134B     		ldr	r3, .L23
 201 0004 1868     		ldr	r0, [r3]
 202              	.LVL6:
  37:modules/ops/ops.c ****     if (ops_instance->recv_buff[0] == (uint8_t)(OPS_FRAME_HEAD >> 8) && ops_instance->recv_buff[1] 
 203              		.loc 1 37 5 is_stmt 0 view .LVU48
 204 0006 FFF7FEFF 		bl	DaemonReload
 205              	.LVL7:
  38:modules/ops/ops.c ****     {
 206              		.loc 1 38 5 is_stmt 1 view .LVU49
  38:modules/ops/ops.c ****     {
 207              		.loc 1 38 21 is_stmt 0 view .LVU50
 208 000a 124B     		ldr	r3, .L23+4
 209 000c 1B68     		ldr	r3, [r3]
 210 000e 1C68     		ldr	r4, [r3]
  38:modules/ops/ops.c ****     {
 211              		.loc 1 38 32 view .LVU51
 212 0010 2378     		ldrb	r3, [r4]	@ zero_extendqisi2
  38:modules/ops/ops.c ****     {
 213              		.loc 1 38 8 view .LVU52
 214 0012 0D2B     		cmp	r3, #13
 215 0014 00D0     		beq	.L22
 216              	.L19:
  43:modules/ops/ops.c **** static void OpsLostCallback(void *id)
 217              		.loc 1 43 1 view .LVU53
 218 0016 38BD     		pop	{r3, r4, r5, pc}
 219              	.L22:
  38:modules/ops/ops.c ****     {
 220              		.loc 1 38 96 discriminator 1 view .LVU54
 221 0018 6378     		ldrb	r3, [r4, #1]	@ zero_extendqisi2
  38:modules/ops/ops.c ****     {
ARM GAS  C:\Users\blue\AppData\Local\Temp\ccVuv69n.s 			page 6


 222              		.loc 1 38 70 discriminator 1 view .LVU55
 223 001a 0A2B     		cmp	r3, #10
 224 001c FBD1     		bne	.L19
  38:modules/ops/ops.c ****     {
 225              		.loc 1 38 162 discriminator 2 view .LVU56
 226 001e A37E     		ldrb	r3, [r4, #26]	@ zero_extendqisi2
  38:modules/ops/ops.c ****     {
 227              		.loc 1 38 136 discriminator 2 view .LVU57
 228 0020 0A2B     		cmp	r3, #10
 229 0022 F8D1     		bne	.L19
  38:modules/ops/ops.c ****     {
 230              		.loc 1 38 243 discriminator 3 view .LVU58
 231 0024 E37E     		ldrb	r3, [r4, #27]	@ zero_extendqisi2
  38:modules/ops/ops.c ****     {
 232              		.loc 1 38 217 discriminator 3 view .LVU59
 233 0026 0D2B     		cmp	r3, #13
 234 0028 F5D1     		bne	.L19
  40:modules/ops/ops.c ****         OPS_data_process();
 235              		.loc 1 40 9 is_stmt 1 view .LVU60
 236 002a 0B4D     		ldr	r5, .L23+8
 237 002c D4F80200 		ldr	r0, [r4, #2]	@ unaligned
 238 0030 D4F80610 		ldr	r1, [r4, #6]	@ unaligned
 239 0034 D4F80A20 		ldr	r2, [r4, #10]	@ unaligned
 240 0038 D4F80E30 		ldr	r3, [r4, #14]	@ unaligned
 241 003c 0FC5     		stmia	r5!, {r0, r1, r2, r3}
 242 003e D4F81200 		ldr	r0, [r4, #18]	@ unaligned
 243 0042 D4F81610 		ldr	r1, [r4, #22]	@ unaligned
 244 0046 03C5     		stmia	r5!, {r0, r1}
  41:modules/ops/ops.c ****     }
 245              		.loc 1 41 9 view .LVU61
 246 0048 FFF7FEFF 		bl	OPS_data_process
 247              	.LVL8:
  43:modules/ops/ops.c **** static void OpsLostCallback(void *id)
 248              		.loc 1 43 1 is_stmt 0 view .LVU62
 249 004c E3E7     		b	.L19
 250              	.L24:
 251 004e 00BF     		.align	2
 252              	.L23:
 253 0050 00000000 		.word	.LANCHOR2
 254 0054 00000000 		.word	.LANCHOR1
 255 0058 00000000 		.word	.LANCHOR0
 256              		.cfi_endproc
 257              	.LFE145:
 259              		.section	.text.Ops_Init,"ax",%progbits
 260              		.align	1
 261              		.global	Ops_Init
 262              		.syntax unified
 263              		.thumb
 264              		.thumb_func
 266              	Ops_Init:
 267              	.LVL9:
 268              	.LFB147:
  52:modules/ops/ops.c **** OPS_data_t *Ops_Init(UART_HandleTypeDef *ops_usart_handle)
  53:modules/ops/ops.c **** {
 269              		.loc 1 53 1 is_stmt 1 view -0
 270              		.cfi_startproc
 271              		@ args = 0, pretend = 0, frame = 24
ARM GAS  C:\Users\blue\AppData\Local\Temp\ccVuv69n.s 			page 7


 272              		@ frame_needed = 0, uses_anonymous_args = 0
 273              		.loc 1 53 1 is_stmt 0 view .LVU64
 274 0000 10B5     		push	{r4, lr}
 275              	.LCFI2:
 276              		.cfi_def_cfa_offset 8
 277              		.cfi_offset 4, -8
 278              		.cfi_offset 14, -4
 279 0002 86B0     		sub	sp, sp, #24
 280              	.LCFI3:
 281              		.cfi_def_cfa_offset 32
 282 0004 0446     		mov	r4, r0
  54:modules/ops/ops.c ****     USART_Init_Config_s conf;
 283              		.loc 1 54 5 is_stmt 1 view .LVU65
  55:modules/ops/ops.c ****     conf.module_callback = OPSRxCallback;
 284              		.loc 1 55 5 view .LVU66
 285              		.loc 1 55 26 is_stmt 0 view .LVU67
 286 0006 0F4B     		ldr	r3, .L27
 287 0008 0593     		str	r3, [sp, #20]
  56:modules/ops/ops.c ****     conf.recv_buff_size = OPS_FRAME_SIZE;
 288              		.loc 1 56 5 is_stmt 1 view .LVU68
 289              		.loc 1 56 25 is_stmt 0 view .LVU69
 290 000a 1C23     		movs	r3, #28
 291 000c 8DF80C30 		strb	r3, [sp, #12]
  57:modules/ops/ops.c ****     conf.usart_handle = ops_usart_handle;
 292              		.loc 1 57 5 is_stmt 1 view .LVU70
 293              		.loc 1 57 23 is_stmt 0 view .LVU71
 294 0010 0490     		str	r0, [sp, #16]
  58:modules/ops/ops.c ****     ops_instance = USARTRegister(&conf);
 295              		.loc 1 58 5 is_stmt 1 view .LVU72
 296              		.loc 1 58 20 is_stmt 0 view .LVU73
 297 0012 03A8     		add	r0, sp, #12
 298              	.LVL10:
 299              		.loc 1 58 20 view .LVU74
 300 0014 FFF7FEFF 		bl	USARTRegister
 301              	.LVL11:
 302              		.loc 1 58 18 view .LVU75
 303 0018 0B4B     		ldr	r3, .L27+4
 304 001a 1860     		str	r0, [r3]
  59:modules/ops/ops.c **** 
  60:modules/ops/ops.c ****     Daemon_Init_Config_s daemon_conf = {
 305              		.loc 1 60 5 is_stmt 1 view .LVU76
 306              		.loc 1 60 26 is_stmt 0 view .LVU77
 307 001c 0223     		movs	r3, #2
 308 001e ADF80030 		strh	r3, [sp]	@ movhi
 309 0022 0A4B     		ldr	r3, .L27+8
 310 0024 0193     		str	r3, [sp, #4]
 311 0026 0294     		str	r4, [sp, #8]
  61:modules/ops/ops.c ****         .reload_count = 2, // 200fps = 5ms, 1: 10ms没收到消息
  62:modules/ops/ops.c ****         .callback = OpsLostCallback,
  63:modules/ops/ops.c ****         .owner_id = ops_usart_handle,
  64:modules/ops/ops.c ****     };
  65:modules/ops/ops.c ****     ops_daemon_instance = DaemonRegister(&daemon_conf);
 312              		.loc 1 65 5 is_stmt 1 view .LVU78
 313              		.loc 1 65 27 is_stmt 0 view .LVU79
 314 0028 6846     		mov	r0, sp
 315 002a FFF7FEFF 		bl	DaemonRegister
 316              	.LVL12:
ARM GAS  C:\Users\blue\AppData\Local\Temp\ccVuv69n.s 			page 8


 317              		.loc 1 65 25 view .LVU80
 318 002e 084B     		ldr	r3, .L27+12
 319 0030 1860     		str	r0, [r3]
  66:modules/ops/ops.c ****     memset(ops_data, 0, sizeof(*ops_data));
 320              		.loc 1 66 5 is_stmt 1 view .LVU81
 321 0032 1422     		movs	r2, #20
 322 0034 0021     		movs	r1, #0
 323 0036 0846     		mov	r0, r1
 324 0038 FFF7FEFF 		bl	memset
 325              	.LVL13:
  67:modules/ops/ops.c ****     ops_data->OPS_ring = 0;
 326              		.loc 1 67 5 view .LVU82
  68:modules/ops/ops.c ****     ops_data->OPS_Init_Flag = 0;
 327              		.loc 1 68 5 view .LVU83
  69:modules/ops/ops.c ****     return ops_data;
 328              		.loc 1 69 5 view .LVU84
  70:modules/ops/ops.c **** }
 329              		.loc 1 70 1 is_stmt 0 view .LVU85
 330 003c 0020     		movs	r0, #0
 331 003e 06B0     		add	sp, sp, #24
 332              	.LCFI4:
 333              		.cfi_def_cfa_offset 8
 334              		@ sp needed
 335 0040 10BD     		pop	{r4, pc}
 336              	.LVL14:
 337              	.L28:
 338              		.loc 1 70 1 view .LVU86
 339 0042 00BF     		.align	2
 340              	.L27:
 341 0044 00000000 		.word	OPSRxCallback
 342 0048 00000000 		.word	.LANCHOR1
 343 004c 00000000 		.word	OpsLostCallback
 344 0050 00000000 		.word	.LANCHOR2
 345              		.cfi_endproc
 346              	.LFE147:
 348              		.section	.bss.ops_daemon_instance,"aw",%nobits
 349              		.align	2
 350              		.set	.LANCHOR2,. + 0
 353              	ops_daemon_instance:
 354 0000 00000000 		.space	4
 355              		.section	.bss.ops_data_buff,"aw",%nobits
 356              		.align	2
 357              		.set	.LANCHOR0,. + 0
 360              	ops_data_buff:
 361 0000 00000000 		.space	24
 361      00000000 
 361      00000000 
 361      00000000 
 361      00000000 
 362              		.section	.bss.ops_instance,"aw",%nobits
 363              		.align	2
 364              		.set	.LANCHOR1,. + 0
 367              	ops_instance:
 368 0000 00000000 		.space	4
 369              		.text
 370              	.Letext0:
 371              		.file 2 "d:\\rm\\arm-gnu-toolchian\\arm-none-eabi\\include\\machine\\_default_types.h"
ARM GAS  C:\Users\blue\AppData\Local\Temp\ccVuv69n.s 			page 9


 372              		.file 3 "d:\\rm\\arm-gnu-toolchian\\arm-none-eabi\\include\\sys\\_stdint.h"
 373              		.file 4 "Drivers/CMSIS/Device/ST/STM32H7xx/Include/stm32h743xx.h"
 374              		.file 5 "d:\\rm\\arm-gnu-toolchian\\lib\\gcc\\arm-none-eabi\\10.3.1\\include\\stddef.h"
 375              		.file 6 "Drivers/STM32H7xx_HAL_Driver/Inc/stm32h7xx_hal_def.h"
 376              		.file 7 "Drivers/STM32H7xx_HAL_Driver/Inc/stm32h7xx_hal_dma.h"
 377              		.file 8 "Drivers/STM32H7xx_HAL_Driver/Inc/stm32h7xx_hal_uart.h"
 378              		.file 9 "modules/ops/ops.h"
 379              		.file 10 "bsp/usart/bsp_usart.h"
 380              		.file 11 "modules/daemon/daemon.h"
 381              		.file 12 "d:\\rm\\arm-gnu-toolchian\\arm-none-eabi\\include\\string.h"
 382              		.file 13 "<built-in>"
ARM GAS  C:\Users\blue\AppData\Local\Temp\ccVuv69n.s 			page 10

