ARM GAS  C:\Users\blue\AppData\Local\Temp\cc3dTX7h.s 			page 1


   1              		.cpu cortex-m7
   2              		.arch armv7e-m
   3              		.fpu fpv5-d16
   4              		.eabi_attribute 28, 1
   5              		.eabi_attribute 20, 1
   6              		.eabi_attribute 21, 1
   7              		.eabi_attribute 23, 3
   8              		.eabi_attribute 24, 1
   9              		.eabi_attribute 25, 1
  10              		.eabi_attribute 26, 1
  11              		.eabi_attribute 30, 1
  12              		.eabi_attribute 34, 1
  13              		.eabi_attribute 18, 4
  14              		.file	"ops.c"
  15              		.text
  16              	.Ltext0:
  17              		.cfi_sections	.debug_frame
  18              		.section	.text.OPS_data_process,"ax",%progbits
  19              		.align	1
  20              		.syntax unified
  21              		.thumb
  22              		.thumb_func
  24              	OPS_data_process:
  25              	.LFB144:
  26              		.file 1 "modules/ops/ops.c"
   1:modules/ops/ops.c **** #include "ops.h"
   2:modules/ops/ops.c **** #include "bsp_usart.h"
   3:modules/ops/ops.c **** #include "daemon.h"
   4:modules/ops/ops.c **** #include "memory.h"
   5:modules/ops/ops.c **** /***
   6:modules/ops/ops.c ****  * @note ops的y轴(front)位0度，逆时针方向为正方向
   7:modules/ops/ops.c ****  */
   8:modules/ops/ops.c **** #define OPS_FRAME_SIZE 28 // 2 + 24 + 2
   9:modules/ops/ops.c **** #define OPS_FRAME_HEAD 0x0D0A
  10:modules/ops/ops.c **** #define OPS_FRAME_TAIL 0x0A0D
  11:modules/ops/ops.c **** static OPS_data_t *ops_data;
  12:modules/ops/ops.c **** static USARTInstance *ops_instance;
  13:modules/ops/ops.c **** static DaemonInstance *ops_daemon_instance;
  14:modules/ops/ops.c **** static OPS ops_data_buff;
  15:modules/ops/ops.c **** 
  16:modules/ops/ops.c **** static void OPS_data_process(void)
  17:modules/ops/ops.c **** {
  27              		.loc 1 17 1 view -0
  28              		.cfi_startproc
  29              		@ args = 0, pretend = 0, frame = 0
  30              		@ frame_needed = 0, uses_anonymous_args = 0
  31              		@ link register save eliminated.
  18:modules/ops/ops.c ****     // 转弯处理，顺时针为正
  19:modules/ops/ops.c ****     if (ops_data->OPS_heading > 170 && ops_data_buff.ActVal[0] < -170)
  32              		.loc 1 19 5 view .LVU1
  33              		.loc 1 19 17 is_stmt 0 view .LVU2
  34 0000 0023     		movs	r3, #0
  35 0002 D3ED027A 		vldr.32	s15, [r3, #8]
  36              		.loc 1 19 8 view .LVU3
  37 0006 9FED267A 		vldr.32	s14, .L13
  38 000a F4EEC77A 		vcmpe.f32	s15, s14
  39 000e F1EE10FA 		vmrs	APSR_nzcv, FPSCR
ARM GAS  C:\Users\blue\AppData\Local\Temp\cc3dTX7h.s 			page 2


  40 0012 2FDD     		ble	.L2
  41              		.loc 1 19 60 discriminator 1 view .LVU4
  42 0014 234B     		ldr	r3, .L13+4
  43 0016 D3ED006A 		vldr.32	s13, [r3]
  44              		.loc 1 19 37 discriminator 1 view .LVU5
  45 001a 9FED237A 		vldr.32	s14, .L13+8
  46 001e F4EEC76A 		vcmpe.f32	s13, s14
  47 0022 F1EE10FA 		vmrs	APSR_nzcv, FPSCR
  48 0026 25D5     		bpl	.L2
  20:modules/ops/ops.c ****     {
  21:modules/ops/ops.c ****         ops_data->OPS_ring++;
  49              		.loc 1 21 9 is_stmt 1 view .LVU6
  50              		.loc 1 21 17 is_stmt 0 view .LVU7
  51 0028 0022     		movs	r2, #0
  52 002a D368     		ldr	r3, [r2, #12]
  53              		.loc 1 21 27 view .LVU8
  54 002c 0133     		adds	r3, r3, #1
  55 002e D360     		str	r3, [r2, #12]
  56              	.L5:
  22:modules/ops/ops.c ****     }
  23:modules/ops/ops.c ****     else if (ops_data->OPS_heading < -170 && ops_data_buff.ActVal[0] > 170)
  24:modules/ops/ops.c ****     {
  25:modules/ops/ops.c ****         ops_data->OPS_ring--;
  26:modules/ops/ops.c ****     }
  27:modules/ops/ops.c ****     ops_data->OPS_heading = ops_data_buff.ActVal[0];
  57              		.loc 1 27 5 is_stmt 1 view .LVU9
  58              		.loc 1 27 49 is_stmt 0 view .LVU10
  59 0030 1C4A     		ldr	r2, .L13+4
  60 0032 D2ED007A 		vldr.32	s15, [r2]
  61              		.loc 1 27 27 view .LVU11
  62 0036 0023     		movs	r3, #0
  63 0038 C3ED027A 		vstr.32	s15, [r3, #8]
  28:modules/ops/ops.c ****     ops_data->OPS_x = ops_data_buff.ActVal[3] / 1000;
  64              		.loc 1 28 5 is_stmt 1 view .LVU12
  65              		.loc 1 28 43 is_stmt 0 view .LVU13
  66 003c 92ED036A 		vldr.32	s12, [r2, #12]
  67              		.loc 1 28 47 view .LVU14
  68 0040 DFED1A6A 		vldr.32	s13, .L13+12
  69 0044 86EE267A 		vdiv.f32	s14, s12, s13
  70              		.loc 1 28 21 view .LVU15
  71 0048 83ED007A 		vstr.32	s14, [r3]
  29:modules/ops/ops.c ****     ops_data->OPS_y = ops_data_buff.ActVal[4] / 1000;
  72              		.loc 1 29 5 is_stmt 1 view .LVU16
  73              		.loc 1 29 43 is_stmt 0 view .LVU17
  74 004c 92ED046A 		vldr.32	s12, [r2, #16]
  75              		.loc 1 29 47 view .LVU18
  76 0050 86EE267A 		vdiv.f32	s14, s12, s13
  77              		.loc 1 29 21 view .LVU19
  78 0054 83ED017A 		vstr.32	s14, [r3, #4]
  30:modules/ops/ops.c ****     if (ops_data->OPS_heading + ops_data->OPS_y + ops_data->OPS_heading != 0 && ops_data->OPS_Init_
  79              		.loc 1 30 5 is_stmt 1 view .LVU20
  80              		.loc 1 30 31 is_stmt 0 view .LVU21
  81 0058 37EE877A 		vadd.f32	s14, s15, s14
  82              		.loc 1 30 49 view .LVU22
  83 005c 77EE877A 		vadd.f32	s15, s15, s14
  84              		.loc 1 30 8 view .LVU23
  85 0060 F5EE407A 		vcmp.f32	s15, #0
ARM GAS  C:\Users\blue\AppData\Local\Temp\cc3dTX7h.s 			page 3


  86 0064 F1EE10FA 		vmrs	APSR_nzcv, FPSCR
  87 0068 03D0     		beq	.L1
  88              		.loc 1 30 89 discriminator 1 view .LVU24
  89 006a 1B7C     		ldrb	r3, [r3, #16]	@ zero_extendqisi2
  90              		.loc 1 30 78 discriminator 1 view .LVU25
  91 006c 0BB9     		cbnz	r3, .L1
  31:modules/ops/ops.c ****     {
  32:modules/ops/ops.c ****         ops_data->OPS_Init_Flag = 1;
  92              		.loc 1 32 9 is_stmt 1 view .LVU26
  93              		.loc 1 32 33 is_stmt 0 view .LVU27
  94 006e 0122     		movs	r2, #1
  95 0070 1A74     		strb	r2, [r3, #16]
  96              	.L1:
  33:modules/ops/ops.c ****     }
  34:modules/ops/ops.c **** }
  97              		.loc 1 34 1 view .LVU28
  98 0072 7047     		bx	lr
  99              	.L2:
  23:modules/ops/ops.c ****     {
 100              		.loc 1 23 10 is_stmt 1 view .LVU29
  23:modules/ops/ops.c ****     {
 101              		.loc 1 23 13 is_stmt 0 view .LVU30
 102 0074 9FED0C7A 		vldr.32	s14, .L13+8
 103 0078 F4EEC77A 		vcmpe.f32	s15, s14
 104 007c F1EE10FA 		vmrs	APSR_nzcv, FPSCR
 105 0080 D6D5     		bpl	.L5
  23:modules/ops/ops.c ****     {
 106              		.loc 1 23 66 discriminator 1 view .LVU31
 107 0082 084B     		ldr	r3, .L13+4
 108 0084 93ED007A 		vldr.32	s14, [r3]
  23:modules/ops/ops.c ****     {
 109              		.loc 1 23 43 discriminator 1 view .LVU32
 110 0088 DFED057A 		vldr.32	s15, .L13
 111 008c B4EEE77A 		vcmpe.f32	s14, s15
 112 0090 F1EE10FA 		vmrs	APSR_nzcv, FPSCR
 113 0094 CCDD     		ble	.L5
  25:modules/ops/ops.c ****     }
 114              		.loc 1 25 9 is_stmt 1 view .LVU33
  25:modules/ops/ops.c ****     }
 115              		.loc 1 25 17 is_stmt 0 view .LVU34
 116 0096 0022     		movs	r2, #0
 117 0098 D368     		ldr	r3, [r2, #12]
  25:modules/ops/ops.c ****     }
 118              		.loc 1 25 27 view .LVU35
 119 009a 013B     		subs	r3, r3, #1
 120 009c D360     		str	r3, [r2, #12]
 121 009e C7E7     		b	.L5
 122              	.L14:
 123              		.align	2
 124              	.L13:
 125 00a0 00002A43 		.word	1126825984
 126 00a4 00000000 		.word	.LANCHOR0
 127 00a8 00002AC3 		.word	-1020657664
 128 00ac 00007A44 		.word	1148846080
 129              		.cfi_endproc
 130              	.LFE144:
 132              		.section	.text.OpsLostCallback,"ax",%progbits
ARM GAS  C:\Users\blue\AppData\Local\Temp\cc3dTX7h.s 			page 4


 133              		.align	1
 134              		.syntax unified
 135              		.thumb
 136              		.thumb_func
 138              	OpsLostCallback:
 139              	.LVL0:
 140              	.LFB146:
  35:modules/ops/ops.c **** static void OPSRxCallback(UART_HandleTypeDef *huart, uint16_t size)
  36:modules/ops/ops.c **** {
  37:modules/ops/ops.c ****     DaemonReload(ops_daemon_instance);
  38:modules/ops/ops.c ****     if (ops_instance->recv_buff[0] == (uint8_t)(OPS_FRAME_HEAD >> 8) && ops_instance->recv_buff[1] 
  39:modules/ops/ops.c ****     {
  40:modules/ops/ops.c ****         memcpy(ops_data_buff.data, &ops_instance->recv_buff[2], 24);
  41:modules/ops/ops.c ****         OPS_data_process();
  42:modules/ops/ops.c ****     }
  43:modules/ops/ops.c **** }
  44:modules/ops/ops.c **** static void OpsLostCallback(void *id)
  45:modules/ops/ops.c **** {
 141              		.loc 1 45 1 is_stmt 1 view -0
 142              		.cfi_startproc
 143              		@ args = 0, pretend = 0, frame = 0
 144              		@ frame_needed = 0, uses_anonymous_args = 0
 145              		.loc 1 45 1 is_stmt 0 view .LVU37
 146 0000 10B5     		push	{r4, lr}
 147              	.LCFI0:
 148              		.cfi_def_cfa_offset 8
 149              		.cfi_offset 4, -8
 150              		.cfi_offset 14, -4
  46:modules/ops/ops.c ****     USARTServiceInit(ops_instance);
 151              		.loc 1 46 5 is_stmt 1 view .LVU38
 152 0002 094C     		ldr	r4, .L17
 153 0004 2068     		ldr	r0, [r4]
 154              	.LVL1:
 155              		.loc 1 46 5 is_stmt 0 view .LVU39
 156 0006 FFF7FEFF 		bl	USARTServiceInit
 157              	.LVL2:
  47:modules/ops/ops.c ****     memset(ops_instance->recv_buff, 0, ops_instance->recv_buff_size);
 158              		.loc 1 47 5 is_stmt 1 view .LVU40
 159              		.loc 1 47 24 is_stmt 0 view .LVU41
 160 000a 2368     		ldr	r3, [r4]
 161              		.loc 1 47 5 view .LVU42
 162 000c 5A68     		ldr	r2, [r3, #4]
 163 000e 0021     		movs	r1, #0
 164 0010 1868     		ldr	r0, [r3]
 165 0012 FFF7FEFF 		bl	memset
 166              	.LVL3:
  48:modules/ops/ops.c ****     memset(ops_data, 0, sizeof(ops_data));
 167              		.loc 1 48 5 is_stmt 1 view .LVU43
 168 0016 0422     		movs	r2, #4
 169 0018 0021     		movs	r1, #0
 170 001a 0846     		mov	r0, r1
 171 001c FFF7FEFF 		bl	memset
 172              	.LVL4:
  49:modules/ops/ops.c ****     ops_data->OPS_ring = 0;
 173              		.loc 1 49 5 view .LVU44
 174              		.loc 1 49 24 is_stmt 0 view .LVU45
 175 0020 0023     		movs	r3, #0
ARM GAS  C:\Users\blue\AppData\Local\Temp\cc3dTX7h.s 			page 5


 176 0022 DB60     		str	r3, [r3, #12]
  50:modules/ops/ops.c ****     ops_data->OPS_Init_Flag = 0;
 177              		.loc 1 50 5 is_stmt 1 view .LVU46
 178              		.loc 1 50 29 is_stmt 0 view .LVU47
 179 0024 1B74     		strb	r3, [r3, #16]
  51:modules/ops/ops.c **** }
 180              		.loc 1 51 1 view .LVU48
 181 0026 10BD     		pop	{r4, pc}
 182              	.L18:
 183              		.align	2
 184              	.L17:
 185 0028 00000000 		.word	.LANCHOR1
 186              		.cfi_endproc
 187              	.LFE146:
 189              		.section	.text.OPSRxCallback,"ax",%progbits
 190              		.align	1
 191              		.syntax unified
 192              		.thumb
 193              		.thumb_func
 195              	OPSRxCallback:
 196              	.LVL5:
 197              	.LFB145:
  36:modules/ops/ops.c ****     DaemonReload(ops_daemon_instance);
 198              		.loc 1 36 1 is_stmt 1 view -0
 199              		.cfi_startproc
 200              		@ args = 0, pretend = 0, frame = 0
 201              		@ frame_needed = 0, uses_anonymous_args = 0
  36:modules/ops/ops.c ****     DaemonReload(ops_daemon_instance);
 202              		.loc 1 36 1 is_stmt 0 view .LVU50
 203 0000 38B5     		push	{r3, r4, r5, lr}
 204              	.LCFI1:
 205              		.cfi_def_cfa_offset 16
 206              		.cfi_offset 3, -16
 207              		.cfi_offset 4, -12
 208              		.cfi_offset 5, -8
 209              		.cfi_offset 14, -4
  37:modules/ops/ops.c ****     if (ops_instance->recv_buff[0] == (uint8_t)(OPS_FRAME_HEAD >> 8) && ops_instance->recv_buff[1] 
 210              		.loc 1 37 5 is_stmt 1 view .LVU51
 211 0002 134B     		ldr	r3, .L23
 212 0004 1868     		ldr	r0, [r3]
 213              	.LVL6:
  37:modules/ops/ops.c ****     if (ops_instance->recv_buff[0] == (uint8_t)(OPS_FRAME_HEAD >> 8) && ops_instance->recv_buff[1] 
 214              		.loc 1 37 5 is_stmt 0 view .LVU52
 215 0006 FFF7FEFF 		bl	DaemonReload
 216              	.LVL7:
  38:modules/ops/ops.c ****     {
 217              		.loc 1 38 5 is_stmt 1 view .LVU53
  38:modules/ops/ops.c ****     {
 218              		.loc 1 38 21 is_stmt 0 view .LVU54
 219 000a 124B     		ldr	r3, .L23+4
 220 000c 1B68     		ldr	r3, [r3]
 221 000e 1C68     		ldr	r4, [r3]
  38:modules/ops/ops.c ****     {
 222              		.loc 1 38 32 view .LVU55
 223 0010 2378     		ldrb	r3, [r4]	@ zero_extendqisi2
  38:modules/ops/ops.c ****     {
 224              		.loc 1 38 8 view .LVU56
ARM GAS  C:\Users\blue\AppData\Local\Temp\cc3dTX7h.s 			page 6


 225 0012 0D2B     		cmp	r3, #13
 226 0014 00D0     		beq	.L22
 227              	.L19:
  43:modules/ops/ops.c **** static void OpsLostCallback(void *id)
 228              		.loc 1 43 1 view .LVU57
 229 0016 38BD     		pop	{r3, r4, r5, pc}
 230              	.L22:
  38:modules/ops/ops.c ****     {
 231              		.loc 1 38 96 discriminator 1 view .LVU58
 232 0018 6378     		ldrb	r3, [r4, #1]	@ zero_extendqisi2
  38:modules/ops/ops.c ****     {
 233              		.loc 1 38 70 discriminator 1 view .LVU59
 234 001a 0A2B     		cmp	r3, #10
 235 001c FBD1     		bne	.L19
  38:modules/ops/ops.c ****     {
 236              		.loc 1 38 162 discriminator 2 view .LVU60
 237 001e A37E     		ldrb	r3, [r4, #26]	@ zero_extendqisi2
  38:modules/ops/ops.c ****     {
 238              		.loc 1 38 136 discriminator 2 view .LVU61
 239 0020 0A2B     		cmp	r3, #10
 240 0022 F8D1     		bne	.L19
  38:modules/ops/ops.c ****     {
 241              		.loc 1 38 243 discriminator 3 view .LVU62
 242 0024 E37E     		ldrb	r3, [r4, #27]	@ zero_extendqisi2
  38:modules/ops/ops.c ****     {
 243              		.loc 1 38 217 discriminator 3 view .LVU63
 244 0026 0D2B     		cmp	r3, #13
 245 0028 F5D1     		bne	.L19
  40:modules/ops/ops.c ****         OPS_data_process();
 246              		.loc 1 40 9 is_stmt 1 view .LVU64
 247 002a 0B4D     		ldr	r5, .L23+8
 248 002c D4F80200 		ldr	r0, [r4, #2]	@ unaligned
 249 0030 D4F80610 		ldr	r1, [r4, #6]	@ unaligned
 250 0034 D4F80A20 		ldr	r2, [r4, #10]	@ unaligned
 251 0038 D4F80E30 		ldr	r3, [r4, #14]	@ unaligned
 252 003c 0FC5     		stmia	r5!, {r0, r1, r2, r3}
 253 003e D4F81200 		ldr	r0, [r4, #18]	@ unaligned
 254 0042 D4F81610 		ldr	r1, [r4, #22]	@ unaligned
 255 0046 03C5     		stmia	r5!, {r0, r1}
  41:modules/ops/ops.c ****     }
 256              		.loc 1 41 9 view .LVU65
 257 0048 FFF7FEFF 		bl	OPS_data_process
 258              	.LVL8:
  43:modules/ops/ops.c **** static void OpsLostCallback(void *id)
 259              		.loc 1 43 1 is_stmt 0 view .LVU66
 260 004c E3E7     		b	.L19
 261              	.L24:
 262 004e 00BF     		.align	2
 263              	.L23:
 264 0050 00000000 		.word	.LANCHOR2
 265 0054 00000000 		.word	.LANCHOR1
 266 0058 00000000 		.word	.LANCHOR0
 267              		.cfi_endproc
 268              	.LFE145:
 270              		.section	.text.Ops_Init,"ax",%progbits
 271              		.align	1
 272              		.global	Ops_Init
ARM GAS  C:\Users\blue\AppData\Local\Temp\cc3dTX7h.s 			page 7


 273              		.syntax unified
 274              		.thumb
 275              		.thumb_func
 277              	Ops_Init:
 278              	.LVL9:
 279              	.LFB147:
  52:modules/ops/ops.c **** OPS_data_t *Ops_Init(UART_HandleTypeDef *ops_usart_handle)
  53:modules/ops/ops.c **** {
 280              		.loc 1 53 1 is_stmt 1 view -0
 281              		.cfi_startproc
 282              		@ args = 0, pretend = 0, frame = 24
 283              		@ frame_needed = 0, uses_anonymous_args = 0
 284              		.loc 1 53 1 is_stmt 0 view .LVU68
 285 0000 10B5     		push	{r4, lr}
 286              	.LCFI2:
 287              		.cfi_def_cfa_offset 8
 288              		.cfi_offset 4, -8
 289              		.cfi_offset 14, -4
 290 0002 86B0     		sub	sp, sp, #24
 291              	.LCFI3:
 292              		.cfi_def_cfa_offset 32
 293 0004 0446     		mov	r4, r0
  54:modules/ops/ops.c ****     USART_Init_Config_s conf;
 294              		.loc 1 54 5 is_stmt 1 view .LVU69
  55:modules/ops/ops.c ****     conf.module_callback = OPSRxCallback;
 295              		.loc 1 55 5 view .LVU70
 296              		.loc 1 55 26 is_stmt 0 view .LVU71
 297 0006 104B     		ldr	r3, .L27
 298 0008 0593     		str	r3, [sp, #20]
  56:modules/ops/ops.c ****     conf.recv_buff_size = OPS_FRAME_SIZE;
 299              		.loc 1 56 5 is_stmt 1 view .LVU72
 300              		.loc 1 56 25 is_stmt 0 view .LVU73
 301 000a 1C23     		movs	r3, #28
 302 000c 8DF80C30 		strb	r3, [sp, #12]
  57:modules/ops/ops.c ****     conf.usart_handle = ops_usart_handle;
 303              		.loc 1 57 5 is_stmt 1 view .LVU74
 304              		.loc 1 57 23 is_stmt 0 view .LVU75
 305 0010 0490     		str	r0, [sp, #16]
  58:modules/ops/ops.c ****     ops_instance = USARTRegister(&conf);
 306              		.loc 1 58 5 is_stmt 1 view .LVU76
 307              		.loc 1 58 20 is_stmt 0 view .LVU77
 308 0012 03A8     		add	r0, sp, #12
 309              	.LVL10:
 310              		.loc 1 58 20 view .LVU78
 311 0014 FFF7FEFF 		bl	USARTRegister
 312              	.LVL11:
 313              		.loc 1 58 18 view .LVU79
 314 0018 0C4B     		ldr	r3, .L27+4
 315 001a 1860     		str	r0, [r3]
  59:modules/ops/ops.c **** 
  60:modules/ops/ops.c ****     Daemon_Init_Config_s daemon_conf = {
 316              		.loc 1 60 5 is_stmt 1 view .LVU80
 317              		.loc 1 60 26 is_stmt 0 view .LVU81
 318 001c 0123     		movs	r3, #1
 319 001e ADF80030 		strh	r3, [sp]	@ movhi
 320 0022 0B4B     		ldr	r3, .L27+8
 321 0024 0193     		str	r3, [sp, #4]
ARM GAS  C:\Users\blue\AppData\Local\Temp\cc3dTX7h.s 			page 8


 322 0026 0294     		str	r4, [sp, #8]
  61:modules/ops/ops.c ****         .reload_count = 1, // 200fps = 5ms, 1: 10ms没收到消息
  62:modules/ops/ops.c ****         .callback = OpsLostCallback,
  63:modules/ops/ops.c ****         .owner_id = ops_usart_handle,
  64:modules/ops/ops.c ****     };
  65:modules/ops/ops.c ****     ops_daemon_instance = DaemonRegister(&daemon_conf);
 323              		.loc 1 65 5 is_stmt 1 view .LVU82
 324              		.loc 1 65 27 is_stmt 0 view .LVU83
 325 0028 6846     		mov	r0, sp
 326 002a FFF7FEFF 		bl	DaemonRegister
 327              	.LVL12:
 328              		.loc 1 65 25 view .LVU84
 329 002e 094B     		ldr	r3, .L27+12
 330 0030 1860     		str	r0, [r3]
  66:modules/ops/ops.c ****     memset(ops_data, 0, sizeof(ops_data));
 331              		.loc 1 66 5 is_stmt 1 view .LVU85
 332 0032 0422     		movs	r2, #4
 333 0034 0021     		movs	r1, #0
 334 0036 0846     		mov	r0, r1
 335 0038 FFF7FEFF 		bl	memset
 336              	.LVL13:
  67:modules/ops/ops.c ****     ops_data->OPS_ring = 0;
 337              		.loc 1 67 5 view .LVU86
 338              		.loc 1 67 24 is_stmt 0 view .LVU87
 339 003c 0020     		movs	r0, #0
 340 003e C060     		str	r0, [r0, #12]
  68:modules/ops/ops.c ****     ops_data->OPS_Init_Flag = 0;
 341              		.loc 1 68 5 is_stmt 1 view .LVU88
 342              		.loc 1 68 29 is_stmt 0 view .LVU89
 343 0040 0074     		strb	r0, [r0, #16]
  69:modules/ops/ops.c ****     return ops_data;
 344              		.loc 1 69 5 is_stmt 1 view .LVU90
  70:modules/ops/ops.c **** }
 345              		.loc 1 70 1 is_stmt 0 view .LVU91
 346 0042 06B0     		add	sp, sp, #24
 347              	.LCFI4:
 348              		.cfi_def_cfa_offset 8
 349              		@ sp needed
 350 0044 10BD     		pop	{r4, pc}
 351              	.LVL14:
 352              	.L28:
 353              		.loc 1 70 1 view .LVU92
 354 0046 00BF     		.align	2
 355              	.L27:
 356 0048 00000000 		.word	OPSRxCallback
 357 004c 00000000 		.word	.LANCHOR1
 358 0050 00000000 		.word	OpsLostCallback
 359 0054 00000000 		.word	.LANCHOR2
 360              		.cfi_endproc
 361              	.LFE147:
 363              		.section	.bss.ops_daemon_instance,"aw",%nobits
 364              		.align	2
 365              		.set	.LANCHOR2,. + 0
 368              	ops_daemon_instance:
 369 0000 00000000 		.space	4
 370              		.section	.bss.ops_data_buff,"aw",%nobits
 371              		.align	2
ARM GAS  C:\Users\blue\AppData\Local\Temp\cc3dTX7h.s 			page 9


 372              		.set	.LANCHOR0,. + 0
 375              	ops_data_buff:
 376 0000 00000000 		.space	24
 376      00000000 
 376      00000000 
 376      00000000 
 376      00000000 
 377              		.section	.bss.ops_instance,"aw",%nobits
 378              		.align	2
 379              		.set	.LANCHOR1,. + 0
 382              	ops_instance:
 383 0000 00000000 		.space	4
 384              		.text
 385              	.Letext0:
 386              		.file 2 "d:\\rm\\arm-gnu-toolchian\\arm-none-eabi\\include\\machine\\_default_types.h"
 387              		.file 3 "d:\\rm\\arm-gnu-toolchian\\arm-none-eabi\\include\\sys\\_stdint.h"
 388              		.file 4 "Drivers/CMSIS/Device/ST/STM32H7xx/Include/stm32h743xx.h"
 389              		.file 5 "d:\\rm\\arm-gnu-toolchian\\lib\\gcc\\arm-none-eabi\\10.3.1\\include\\stddef.h"
 390              		.file 6 "Drivers/STM32H7xx_HAL_Driver/Inc/stm32h7xx_hal_def.h"
 391              		.file 7 "Drivers/STM32H7xx_HAL_Driver/Inc/stm32h7xx_hal_dma.h"
 392              		.file 8 "Drivers/STM32H7xx_HAL_Driver/Inc/stm32h7xx_hal_uart.h"
 393              		.file 9 "modules/ops/ops.h"
 394              		.file 10 "bsp/usart/bsp_usart.h"
 395              		.file 11 "modules/daemon/daemon.h"
 396              		.file 12 "d:\\rm\\arm-gnu-toolchian\\arm-none-eabi\\include\\string.h"
 397              		.file 13 "<built-in>"
ARM GAS  C:\Users\blue\AppData\Local\Temp\cc3dTX7h.s 			page 10


DEFINED SYMBOLS
                            *ABS*:00000000 ops.c
C:\Users\blue\AppData\Local\Temp\cc3dTX7h.s:19     .text.OPS_data_process:00000000 $t
C:\Users\blue\AppData\Local\Temp\cc3dTX7h.s:24     .text.OPS_data_process:00000000 OPS_data_process
C:\Users\blue\AppData\Local\Temp\cc3dTX7h.s:125    .text.OPS_data_process:000000a0 $d
C:\Users\blue\AppData\Local\Temp\cc3dTX7h.s:133    .text.OpsLostCallback:00000000 $t
C:\Users\blue\AppData\Local\Temp\cc3dTX7h.s:138    .text.OpsLostCallback:00000000 OpsLostCallback
C:\Users\blue\AppData\Local\Temp\cc3dTX7h.s:185    .text.OpsLostCallback:00000028 $d
C:\Users\blue\AppData\Local\Temp\cc3dTX7h.s:190    .text.OPSRxCallback:00000000 $t
C:\Users\blue\AppData\Local\Temp\cc3dTX7h.s:195    .text.OPSRxCallback:00000000 OPSRxCallback
C:\Users\blue\AppData\Local\Temp\cc3dTX7h.s:264    .text.OPSRxCallback:00000050 $d
C:\Users\blue\AppData\Local\Temp\cc3dTX7h.s:271    .text.Ops_Init:00000000 $t
C:\Users\blue\AppData\Local\Temp\cc3dTX7h.s:277    .text.Ops_Init:00000000 Ops_Init
C:\Users\blue\AppData\Local\Temp\cc3dTX7h.s:356    .text.Ops_Init:00000048 $d
C:\Users\blue\AppData\Local\Temp\cc3dTX7h.s:364    .bss.ops_daemon_instance:00000000 $d
C:\Users\blue\AppData\Local\Temp\cc3dTX7h.s:368    .bss.ops_daemon_instance:00000000 ops_daemon_instance
C:\Users\blue\AppData\Local\Temp\cc3dTX7h.s:371    .bss.ops_data_buff:00000000 $d
C:\Users\blue\AppData\Local\Temp\cc3dTX7h.s:375    .bss.ops_data_buff:00000000 ops_data_buff
C:\Users\blue\AppData\Local\Temp\cc3dTX7h.s:378    .bss.ops_instance:00000000 $d
C:\Users\blue\AppData\Local\Temp\cc3dTX7h.s:382    .bss.ops_instance:00000000 ops_instance

UNDEFINED SYMBOLS
USARTServiceInit
memset
DaemonReload
USARTRegister
DaemonRegister
