ARM GAS  C:\Users\blue\AppData\Local\Temp\ccS9PlXx.s 			page 1


   1              		.cpu cortex-m7
   2              		.arch armv7e-m
   3              		.fpu fpv5-d16
   4              		.eabi_attribute 28, 1
   5              		.eabi_attribute 20, 1
   6              		.eabi_attribute 21, 1
   7              		.eabi_attribute 23, 3
   8              		.eabi_attribute 24, 1
   9              		.eabi_attribute 25, 1
  10              		.eabi_attribute 26, 1
  11              		.eabi_attribute 30, 1
  12              		.eabi_attribute 34, 1
  13              		.eabi_attribute 18, 4
  14              		.file	"robot.c"
  15              		.section	.rodata.str1.4,"aMS",%progbits,1
  16              		.align	2
  17              	.LC0:
  18 0000 6D6F746F 		.ascii	"motortask\000"
  18      72746173 
  18      6B00
  19 000a 0000     		.align	2
  20              	.LC2:
  21 000c 6461656D 		.ascii	"daemontask\000"
  21      6F6E7461 
  21      736B00
  22 0017 00       		.align	2
  23              	.LC4:
  24 0018 726F626F 		.ascii	"robottask\000"
  24      74746173 
  24      6B00
  25              		.text
  26              	.Ltext0:
  27              		.cfi_sections	.debug_frame
  28              		.section	.text.StartMOTORTASK,"ax",%progbits
  29              		.align	1
  30              		.global	StartMOTORTASK
  31              		.syntax unified
  32              		.thumb
  33              		.thumb_func
  35              	StartMOTORTASK:
  36              	.LFB151:
  37              		.file 1 "application/robot_task.h"
   1:application/robot_task.h **** /* Ê≥®ÊÑèËØ•Êñá‰ª∂Â∫îÂè™Áî®‰∫é‰ªªÂä°ÂàùÂßãÂåñ,Âè™ËÉΩË¢´robot.cÂåÖÂê´*/
   2:application/robot_task.h **** #pragma once
   3:application/robot_task.h **** 
   4:application/robot_task.h **** #include "FreeRTOS.h"
   5:application/robot_task.h **** #include "task.h"
   6:application/robot_task.h **** #include "main.h"
   7:application/robot_task.h **** #include "usart.h"
   8:application/robot_task.h **** #include "cmsis_os.h"
   9:application/robot_task.h **** 
  10:application/robot_task.h **** #include "robot.h"
  11:application/robot_task.h **** #include "daemon.h"
  12:application/robot_task.h **** // #include "buzzer.h"
  13:application/robot_task.h **** #include <memory.h>
  14:application/robot_task.h **** // osThreadId insTaskHandle;
  15:application/robot_task.h **** osThreadId robotTaskHandle;
ARM GAS  C:\Users\blue\AppData\Local\Temp\ccS9PlXx.s 			page 2


  16:application/robot_task.h **** osThreadId motorTaskHandle;
  17:application/robot_task.h **** osThreadId daemonTaskHandle;
  18:application/robot_task.h **** osThreadId waterTaskHandle;
  19:application/robot_task.h **** // osThreadId uiTaskHandle;
  20:application/robot_task.h **** /*      ‰∏≠Êñ≠Â§ÑÁêÜ‰ªªÂä°       */
  21:application/robot_task.h **** osThreadId lidarTaskHandle;
  22:application/robot_task.h **** // osThreadId gyroTaskHandle;
  23:application/robot_task.h **** // osThreadId isrTaskHandle;
  24:application/robot_task.h **** 
  25:application/robot_task.h **** // void StartINSTASK(void const *argument);
  26:application/robot_task.h **** // void RobotInitTASK(void const *argument); // Áî®‰∫éÈôÄËû∫‰ª™‰ª•ÂèäËìùÁâôÊï∞ÊçÆÂ§ÑÁêÜ,Ê≠§‰ªªÂä°ÂÆ
  27:application/robot_task.h **** void StartMOTORTASK(void const *argument);
  28:application/robot_task.h **** void StartDAEMONTASK(void const *argument);
  29:application/robot_task.h **** void StartROBOTTASK(void const *argument);
  30:application/robot_task.h **** void StartWaterTASK(void const *argument);
  31:application/robot_task.h **** 
  32:application/robot_task.h **** void StartLidarTask(void const *argument);
  33:application/robot_task.h **** // void StartGyroTask(void const *argument);
  34:application/robot_task.h **** // void StartISRTASK(void const *argument);
  35:application/robot_task.h **** 
  36:application/robot_task.h **** /**
  37:application/robot_task.h ****  * @brief ÂàùÂßãÂåñÊú∫Âô®‰∫∫‰ªªÂä°,ÊâÄÊúâÊåÅÁª≠ËøêË°åÁöÑ‰ªªÂä°ÈÉΩÂú®ËøôÈáåÂàùÂßãÂåñ
  38:application/robot_task.h ****  *
  39:application/robot_task.h ****  */
  40:application/robot_task.h **** void OSTaskInit()
  41:application/robot_task.h **** {
  42:application/robot_task.h ****     osThreadDef(motortask, StartMOTORTASK, osPriorityNormal, 0, 512);
  43:application/robot_task.h ****     motorTaskHandle = osThreadCreate(osThread(motortask), NULL);
  44:application/robot_task.h **** 
  45:application/robot_task.h ****     osThreadDef(daemontask, StartDAEMONTASK, osPriorityNormal, 0, 128);
  46:application/robot_task.h ****     daemonTaskHandle = osThreadCreate(osThread(daemontask), NULL);
  47:application/robot_task.h **** 
  48:application/robot_task.h ****     osThreadDef(robottask, StartROBOTTASK, osPriorityNormal, 0, 1024);
  49:application/robot_task.h ****     robotTaskHandle = osThreadCreate(osThread(robottask), NULL);
  50:application/robot_task.h **** 
  51:application/robot_task.h ****     // osThreadDef(watertask, StartWaterTASK, osPriorityNormal, 0, 1024);
  52:application/robot_task.h ****     // waterTaskHandle = osThreadCreate(osThread(watertask), NULL);
  53:application/robot_task.h **** }
  54:application/robot_task.h **** 
  55:application/robot_task.h **** __attribute__((noreturn)) void StartMOTORTASK(void const *argument)
  56:application/robot_task.h **** {
  38              		.loc 1 56 1 view -0
  39              		.cfi_startproc
  40              		@ Volatile: function does not return.
  41              		@ args = 0, pretend = 0, frame = 0
  42              		@ frame_needed = 0, uses_anonymous_args = 0
  43              	.LVL0:
  44              		.loc 1 56 1 is_stmt 0 view .LVU1
  45 0000 08B5     		push	{r3, lr}
  46              	.LCFI0:
  47              		.cfi_def_cfa_offset 8
  48              		.cfi_offset 3, -8
  49              		.cfi_offset 14, -4
  50              	.LVL1:
  51              	.L2:
  57:application/robot_task.h ****     static float motor_dt;
  52              		.loc 1 57 5 is_stmt 1 view .LVU2
ARM GAS  C:\Users\blue\AppData\Local\Temp\ccS9PlXx.s 			page 3


  58:application/robot_task.h ****     static float motor_start;
  53              		.loc 1 58 5 view .LVU3
  59:application/robot_task.h ****     for (;;)
  54              		.loc 1 59 5 view .LVU4
  55              	.LBB6:
  60:application/robot_task.h ****     {
  61:application/robot_task.h ****         motor_start = DWT_GetTimeline_ms();
  56              		.loc 1 61 9 view .LVU5
  57              		.loc 1 61 23 is_stmt 0 view .LVU6
  58 0002 FFF7FEFF 		bl	DWT_GetTimeline_ms
  59              	.LVL2:
  60              		.loc 1 61 21 view .LVU7
  61 0006 094C     		ldr	r4, .L4
  62 0008 84ED000A 		vstr.32	s0, [r4]
  62:application/robot_task.h ****         MotorControlTask();
  63              		.loc 1 62 9 is_stmt 1 view .LVU8
  64 000c FFF7FEFF 		bl	MotorControlTask
  65              	.LVL3:
  63:application/robot_task.h ****         motor_dt = DWT_GetTimeline_ms() - motor_start;
  66              		.loc 1 63 9 view .LVU9
  67              		.loc 1 63 20 is_stmt 0 view .LVU10
  68 0010 FFF7FEFF 		bl	DWT_GetTimeline_ms
  69              	.LVL4:
  70              		.loc 1 63 41 view .LVU11
  71 0014 D4ED007A 		vldr.32	s15, [r4]
  72 0018 30EE670A 		vsub.f32	s0, s0, s15
  73              		.loc 1 63 18 view .LVU12
  74 001c 044B     		ldr	r3, .L4+4
  75 001e 83ED000A 		vstr.32	s0, [r3]
  64:application/robot_task.h ****         if (motor_dt > 1)
  76              		.loc 1 64 9 is_stmt 1 view .LVU13
  65:application/robot_task.h ****         {
  66:application/robot_task.h ****             // LOGERROR("[freeRTOS] MOTOR Task is being DELAY! dt = [%f]", &motor_dt);
  67:application/robot_task.h ****         }
  77              		.loc 1 67 9 view .LVU14
  68:application/robot_task.h ****         osDelay(1);
  78              		.loc 1 68 9 view .LVU15
  79 0022 0120     		movs	r0, #1
  80 0024 FFF7FEFF 		bl	osDelay
  81              	.LVL5:
  82              	.LBE6:
  59:application/robot_task.h ****     {
  83              		.loc 1 59 11 view .LVU16
  84 0028 EBE7     		b	.L2
  85              	.L5:
  86 002a 00BF     		.align	2
  87              	.L4:
  88 002c 00000000 		.word	.LANCHOR0
  89 0030 00000000 		.word	.LANCHOR1
  90              		.cfi_endproc
  91              	.LFE151:
  93              		.section	.text.StartDAEMONTASK,"ax",%progbits
  94              		.align	1
  95              		.global	StartDAEMONTASK
  96              		.syntax unified
  97              		.thumb
  98              		.thumb_func
ARM GAS  C:\Users\blue\AppData\Local\Temp\ccS9PlXx.s 			page 4


 100              	StartDAEMONTASK:
 101              	.LFB152:
  69:application/robot_task.h ****     }
  70:application/robot_task.h **** }
  71:application/robot_task.h **** 
  72:application/robot_task.h **** __attribute__((noreturn)) void StartDAEMONTASK(void const *argument)
  73:application/robot_task.h **** {
 102              		.loc 1 73 1 view -0
 103              		.cfi_startproc
 104              		@ Volatile: function does not return.
 105              		@ args = 0, pretend = 0, frame = 0
 106              		@ frame_needed = 0, uses_anonymous_args = 0
 107              	.LVL6:
 108              		.loc 1 73 1 is_stmt 0 view .LVU18
 109 0000 08B5     		push	{r3, lr}
 110              	.LCFI1:
 111              		.cfi_def_cfa_offset 8
 112              		.cfi_offset 3, -8
 113              		.cfi_offset 14, -4
 114              	.LVL7:
 115              	.L7:
  74:application/robot_task.h ****     static float daemon_dt;
 116              		.loc 1 74 5 is_stmt 1 view .LVU19
  75:application/robot_task.h ****     static float daemon_start;
 117              		.loc 1 75 5 view .LVU20
  76:application/robot_task.h ****     // BuzzerInit();
  77:application/robot_task.h ****     // LOGINFO("[freeRTOS] Daemon Task Start");
  78:application/robot_task.h ****     for (;;)
 118              		.loc 1 78 5 view .LVU21
  79:application/robot_task.h ****     {
  80:application/robot_task.h ****         // 100Hz
  81:application/robot_task.h ****         daemon_start = DWT_GetTimeline_ms();
 119              		.loc 1 81 9 view .LVU22
 120              		.loc 1 81 24 is_stmt 0 view .LVU23
 121 0002 FFF7FEFF 		bl	DWT_GetTimeline_ms
 122              	.LVL8:
 123              		.loc 1 81 22 view .LVU24
 124 0006 094C     		ldr	r4, .L9
 125 0008 84ED000A 		vstr.32	s0, [r4]
  82:application/robot_task.h ****         DaemonTask();
 126              		.loc 1 82 9 is_stmt 1 view .LVU25
 127 000c FFF7FEFF 		bl	DaemonTask
 128              	.LVL9:
  83:application/robot_task.h ****         // BuzzerTask();
  84:application/robot_task.h ****         daemon_dt = DWT_GetTimeline_ms() - daemon_start;
 129              		.loc 1 84 9 view .LVU26
 130              		.loc 1 84 21 is_stmt 0 view .LVU27
 131 0010 FFF7FEFF 		bl	DWT_GetTimeline_ms
 132              	.LVL10:
 133              		.loc 1 84 42 view .LVU28
 134 0014 D4ED007A 		vldr.32	s15, [r4]
 135 0018 30EE670A 		vsub.f32	s0, s0, s15
 136              		.loc 1 84 19 view .LVU29
 137 001c 044B     		ldr	r3, .L9+4
 138 001e 83ED000A 		vstr.32	s0, [r3]
  85:application/robot_task.h ****         if (daemon_dt > 10)
 139              		.loc 1 85 9 is_stmt 1 view .LVU30
ARM GAS  C:\Users\blue\AppData\Local\Temp\ccS9PlXx.s 			page 5


  86:application/robot_task.h ****         {
  87:application/robot_task.h ****             // LOGERROR("[freeRTOS] Daemon Task is being DELAY! dt = [%f]", &daemon_dt);
  88:application/robot_task.h ****         }
 140              		.loc 1 88 9 view .LVU31
  89:application/robot_task.h ****         osDelay(10);
 141              		.loc 1 89 9 view .LVU32
 142 0022 0A20     		movs	r0, #10
 143 0024 FFF7FEFF 		bl	osDelay
 144              	.LVL11:
  78:application/robot_task.h ****     {
 145              		.loc 1 78 11 view .LVU33
 146 0028 EBE7     		b	.L7
 147              	.L10:
 148 002a 00BF     		.align	2
 149              	.L9:
 150 002c 00000000 		.word	.LANCHOR2
 151 0030 00000000 		.word	.LANCHOR3
 152              		.cfi_endproc
 153              	.LFE152:
 155              		.section	.text.BSPInit,"ax",%progbits
 156              		.align	1
 157              		.global	BSPInit
 158              		.syntax unified
 159              		.thumb
 160              		.thumb_func
 162              	BSPInit:
 163              	.LFB144:
 164              		.file 2 "bsp/bsp_init.h"
   1:bsp/bsp_init.h **** #ifndef BSP_INIT_h
   2:bsp/bsp_init.h **** #define BSP_INIT_h
   3:bsp/bsp_init.h **** 
   4:bsp/bsp_init.h **** #include "bsp_init.h"
   5:bsp/bsp_init.h **** #include "bsp_dwt.h"
   6:bsp/bsp_init.h **** // #include "bsp_usb.h"
   7:bsp/bsp_init.h **** // #include "bsp_log.h"
   8:bsp/bsp_init.h **** 
   9:bsp/bsp_init.h **** /**
  10:bsp/bsp_init.h ****  * @brief bspÂ±ÇÂàùÂßãÂåñÁªü‰∏ÄÂÖ•Âè£,ËøôÈáå‰ªÖÂàùÂßãÂåñÂøÖÈ°ªÁöÑbspÁªÑ‰ª∂,ÂÖ∂‰ªñÁªÑ‰ª∂ÁöÑÂàùÂßãÂåñ
  11:bsp/bsp_init.h ****  *        ÈúÄÂú®ÂÆûÊó∂Á≥ªÁªüÂêØÂä®ÂâçË∞ÉÁî®,ÁõÆÂâçÁî±RobotoInit()Ë∞ÉÁî®
  12:bsp/bsp_init.h ****  *
  13:bsp/bsp_init.h ****  * @note ÂÖ∂‰ªñÂÆû‰æãÂûãÁöÑÂ§ñËÆæÂ¶ÇCANÂíå‰∏≤Âè£‰ºöÂú®Ê≥®ÂÜåÂÆû‰æãÁöÑÊó∂ÂÄôËá™Âä®ÂàùÂßãÂåñ,‰∏çÊ≥®ÂÜ
  14:bsp/bsp_init.h ****  */
  15:bsp/bsp_init.h **** //
  16:bsp/bsp_init.h **** void BSPInit()
  17:bsp/bsp_init.h **** {
 165              		.loc 2 17 1 view -0
 166              		.cfi_startproc
 167              		@ args = 0, pretend = 0, frame = 0
 168              		@ frame_needed = 0, uses_anonymous_args = 0
 169 0000 08B5     		push	{r3, lr}
 170              	.LCFI2:
 171              		.cfi_def_cfa_offset 8
 172              		.cfi_offset 3, -8
 173              		.cfi_offset 14, -4
  18:bsp/bsp_init.h ****   DWT_Init(480);
 174              		.loc 2 18 3 view .LVU35
 175 0002 4FF4F070 		mov	r0, #480
ARM GAS  C:\Users\blue\AppData\Local\Temp\ccS9PlXx.s 			page 6


 176 0006 FFF7FEFF 		bl	DWT_Init
 177              	.LVL12:
  19:bsp/bsp_init.h **** }
 178              		.loc 2 19 1 is_stmt 0 view .LVU36
 179 000a 08BD     		pop	{r3, pc}
 180              		.cfi_endproc
 181              	.LFE144:
 183              		.section	.text.OSTaskInit,"ax",%progbits
 184              		.align	1
 185              		.global	OSTaskInit
 186              		.syntax unified
 187              		.thumb
 188              		.thumb_func
 190              	OSTaskInit:
 191              	.LFB150:
  41:application/robot_task.h ****     osThreadDef(motortask, StartMOTORTASK, osPriorityNormal, 0, 512);
 192              		.loc 1 41 1 is_stmt 1 view -0
 193              		.cfi_startproc
 194              		@ args = 0, pretend = 0, frame = 88
 195              		@ frame_needed = 0, uses_anonymous_args = 0
 196 0000 10B5     		push	{r4, lr}
 197              	.LCFI3:
 198              		.cfi_def_cfa_offset 8
 199              		.cfi_offset 4, -8
 200              		.cfi_offset 14, -4
 201 0002 96B0     		sub	sp, sp, #88
 202              	.LCFI4:
 203              		.cfi_def_cfa_offset 96
  42:application/robot_task.h ****     motorTaskHandle = osThreadCreate(osThread(motortask), NULL);
 204              		.loc 1 42 5 view .LVU38
 205 0004 1B4C     		ldr	r4, .L15
 206 0006 0DF13C0C 		add	ip, sp, #60
 207 000a A646     		mov	lr, r4
 208 000c BEE80F00 		ldmia	lr!, {r0, r1, r2, r3}
 209 0010 ACE80F00 		stmia	ip!, {r0, r1, r2, r3}
 210 0014 9EE80700 		ldm	lr, {r0, r1, r2}
 211 0018 8CE80700 		stm	ip, {r0, r1, r2}
  43:application/robot_task.h **** 
 212              		.loc 1 43 5 view .LVU39
  43:application/robot_task.h **** 
 213              		.loc 1 43 23 is_stmt 0 view .LVU40
 214 001c 0021     		movs	r1, #0
 215 001e 0FA8     		add	r0, sp, #60
 216 0020 FFF7FEFF 		bl	osThreadCreate
 217              	.LVL13:
  43:application/robot_task.h **** 
 218              		.loc 1 43 21 view .LVU41
 219 0024 144B     		ldr	r3, .L15+4
 220 0026 1860     		str	r0, [r3]
  45:application/robot_task.h ****     daemonTaskHandle = osThreadCreate(osThread(daemontask), NULL);
 221              		.loc 1 45 5 is_stmt 1 view .LVU42
 222 0028 0DF1200C 		add	ip, sp, #32
 223 002c 04F11C0E 		add	lr, r4, #28
 224 0030 BEE80F00 		ldmia	lr!, {r0, r1, r2, r3}
 225 0034 ACE80F00 		stmia	ip!, {r0, r1, r2, r3}
 226 0038 9EE80700 		ldm	lr, {r0, r1, r2}
 227 003c 8CE80700 		stm	ip, {r0, r1, r2}
ARM GAS  C:\Users\blue\AppData\Local\Temp\ccS9PlXx.s 			page 7


  46:application/robot_task.h **** 
 228              		.loc 1 46 5 view .LVU43
  46:application/robot_task.h **** 
 229              		.loc 1 46 24 is_stmt 0 view .LVU44
 230 0040 0021     		movs	r1, #0
 231 0042 08A8     		add	r0, sp, #32
 232 0044 FFF7FEFF 		bl	osThreadCreate
 233              	.LVL14:
  46:application/robot_task.h **** 
 234              		.loc 1 46 22 view .LVU45
 235 0048 0C4B     		ldr	r3, .L15+8
 236 004a 1860     		str	r0, [r3]
  48:application/robot_task.h ****     robotTaskHandle = osThreadCreate(osThread(robottask), NULL);
 237              		.loc 1 48 5 is_stmt 1 view .LVU46
 238 004c 0DF1040E 		add	lr, sp, #4
 239 0050 04F1380C 		add	ip, r4, #56
 240 0054 BCE80F00 		ldmia	ip!, {r0, r1, r2, r3}
 241 0058 AEE80F00 		stmia	lr!, {r0, r1, r2, r3}
 242 005c 9CE80700 		ldm	ip, {r0, r1, r2}
 243 0060 8EE80700 		stm	lr, {r0, r1, r2}
  49:application/robot_task.h **** 
 244              		.loc 1 49 5 view .LVU47
  49:application/robot_task.h **** 
 245              		.loc 1 49 23 is_stmt 0 view .LVU48
 246 0064 0021     		movs	r1, #0
 247 0066 01A8     		add	r0, sp, #4
 248 0068 FFF7FEFF 		bl	osThreadCreate
 249              	.LVL15:
  49:application/robot_task.h **** 
 250              		.loc 1 49 21 view .LVU49
 251 006c 044B     		ldr	r3, .L15+12
 252 006e 1860     		str	r0, [r3]
  53:application/robot_task.h **** 
 253              		.loc 1 53 1 view .LVU50
 254 0070 16B0     		add	sp, sp, #88
 255              	.LCFI5:
 256              		.cfi_def_cfa_offset 8
 257              		@ sp needed
 258 0072 10BD     		pop	{r4, pc}
 259              	.L16:
 260              		.align	2
 261              	.L15:
 262 0074 00000000 		.word	.LANCHOR4
 263 0078 00000000 		.word	.LANCHOR5
 264 007c 00000000 		.word	.LANCHOR6
 265 0080 00000000 		.word	.LANCHOR7
 266              		.cfi_endproc
 267              	.LFE150:
 269              		.section	.text.StartWaterTASK,"ax",%progbits
 270              		.align	1
 271              		.global	StartWaterTASK
 272              		.syntax unified
 273              		.thumb
 274              		.thumb_func
 276              	StartWaterTASK:
 277              	.LFB154:
  90:application/robot_task.h ****     }
ARM GAS  C:\Users\blue\AppData\Local\Temp\ccS9PlXx.s 			page 8


  91:application/robot_task.h **** }
  92:application/robot_task.h **** 
  93:application/robot_task.h **** __attribute__((noreturn)) void StartROBOTTASK(void const *argument)
  94:application/robot_task.h **** {
  95:application/robot_task.h ****     // static float robot_dt;
  96:application/robot_task.h ****     // static float robot_start;
  97:application/robot_task.h ****     // LOGINFO("[freeRTOS] ROBOT core Task Start");
  98:application/robot_task.h ****     // 200Hz-500Hz,Ëã•ÊúâÈ¢ùÂ§ñÁöÑÊéßÂà∂‰ªªÂä°Â¶ÇÂπ≥Ë°°Ê≠•ÂÖµÂèØËÉΩÈúÄË¶ÅÊèêÂçáËá≥1kHz
  99:application/robot_task.h ****     for (;;)
 100:application/robot_task.h ****     {
 101:application/robot_task.h ****         // robot_start = DWT_GetTimeline_ms();
 102:application/robot_task.h ****         // GYRO_buff_to_data();
 103:application/robot_task.h ****         RobotTask();
 104:application/robot_task.h ****         // robot_dt = DWT_GetTimeline_ms() - robot_start;
 105:application/robot_task.h ****         // if (robot_dt > 5)
 106:application/robot_task.h ****         // {
 107:application/robot_task.h ****         // LOGERROR("[freeRTOS] ROBOT core Task is being DELAY! dt = [%f]", &robot_dt);
 108:application/robot_task.h ****         // }
 109:application/robot_task.h ****         osDelay(2);
 110:application/robot_task.h ****     }
 111:application/robot_task.h **** }
 112:application/robot_task.h **** 
 113:application/robot_task.h **** __attribute__((noreturn)) void StartWaterTASK(void const *argument)
 114:application/robot_task.h **** {
 278              		.loc 1 114 1 is_stmt 1 view -0
 279              		.cfi_startproc
 280              		@ Volatile: function does not return.
 281              		@ args = 0, pretend = 0, frame = 0
 282              		@ frame_needed = 0, uses_anonymous_args = 0
 283              	.LVL16:
 284              		.loc 1 114 1 is_stmt 0 view .LVU52
 285 0000 08B5     		push	{r3, lr}
 286              	.LCFI6:
 287              		.cfi_def_cfa_offset 8
 288              		.cfi_offset 3, -8
 289              		.cfi_offset 14, -4
 290              	.LVL17:
 291              	.L18:
 115:application/robot_task.h ****     for (;;)
 292              		.loc 1 115 5 is_stmt 1 discriminator 1 view .LVU53
 293              	.LBB7:
 116:application/robot_task.h ****     {
 117:application/robot_task.h ****         WaterTask();
 294              		.loc 1 117 9 discriminator 1 view .LVU54
 295 0002 FFF7FEFF 		bl	WaterTask
 296              	.LVL18:
 118:application/robot_task.h ****         osDelay(1); // Âç≥‰ΩøÊ≤°Êúâ‰ªª‰ΩïUIÈúÄË¶ÅÂà∑Êñ∞,‰πüÊåÇËµ∑‰∏ÄÊ¨°,Èò≤Ê≠¢Âç°Âú®UITask‰∏≠Êó†Ê≥ï
 297              		.loc 1 118 9 discriminator 1 view .LVU55
 298 0006 0120     		movs	r0, #1
 299 0008 FFF7FEFF 		bl	osDelay
 300              	.LVL19:
 301              	.LBE7:
 115:application/robot_task.h ****     for (;;)
 302              		.loc 1 115 11 discriminator 1 view .LVU56
 303 000c F9E7     		b	.L18
 304              		.cfi_endproc
 305              	.LFE154:
ARM GAS  C:\Users\blue\AppData\Local\Temp\ccS9PlXx.s 			page 9


 307              		.section	.text.RobotInitTASK,"ax",%progbits
 308              		.align	1
 309              		.global	RobotInitTASK
 310              		.syntax unified
 311              		.thumb
 312              		.thumb_func
 314              	RobotInitTASK:
 315              	.LFB155:
 119:application/robot_task.h ****     }
 120:application/robot_task.h **** }
 121:application/robot_task.h **** 
 122:application/robot_task.h **** void RobotInitTASK() {}...
 316              		.loc 1 122 22 view -0
 317              		.cfi_startproc
 318              		@ args = 0, pretend = 0, frame = 0
 319              		@ frame_needed = 0, uses_anonymous_args = 0
 320              		@ link register save eliminated.
 321              		.loc 1 122 23 view .LVU58
 322 0000 7047     		bx	lr
 323              		.cfi_endproc
 324              	.LFE155:
 326              		.section	.text.RobotInit,"ax",%progbits
 327              		.align	1
 328              		.global	RobotInit
 329              		.syntax unified
 330              		.thumb
 331              		.thumb_func
 333              	RobotInit:
 334              	.LFB156:
 335              		.file 3 "application/robot.c"
   1:application/robot.c **** #include "bsp_init.h"
   2:application/robot.c **** #include "robot.h"
   3:application/robot.c **** #include "robot_def.h"
   4:application/robot.c **** #include "robot_task.h"
   5:application/robot.c **** // ÁºñËØëwarning,ÊèêÈÜíÂºÄÂèëËÄÖ‰øÆÊîπÊú∫Âô®‰∫∫ÂèÇÊï∞
   6:application/robot.c **** #ifndef ROBOT_DEF_PARAM_WARNING
   7:application/robot.c **** #define ROBOT_DEF_PARAM_WARNING
   8:application/robot.c **** #warning check if you have configured the parameters in robot_def.h, IF NOT, please refer to the co
   9:application/robot.c **** #endif // !ROBOT_DEF_PARAM_WARNING
  10:application/robot.c **** #include "robot_cmd.h"
  11:application/robot.c **** #include "chassis.h"
  12:application/robot.c **** void RobotInit()
  13:application/robot.c **** {
 336              		.loc 3 13 1 view -0
 337              		.cfi_startproc
 338              		@ args = 0, pretend = 0, frame = 0
 339              		@ frame_needed = 0, uses_anonymous_args = 0
 340 0000 08B5     		push	{r3, lr}
 341              	.LCFI7:
 342              		.cfi_def_cfa_offset 8
 343              		.cfi_offset 3, -8
 344              		.cfi_offset 14, -4
  14:application/robot.c **** 
  15:application/robot.c ****     // ÂÖ≥Èó≠‰∏≠Êñ≠,Èò≤Ê≠¢Âú®ÂàùÂßãÂåñËøáÁ®ã‰∏≠ÂèëÁîü‰∏≠Êñ≠
  16:application/robot.c ****     // ËØ∑‰∏çË¶ÅÂú®ÂàùÂßãÂåñËøáÁ®ã‰∏≠‰ΩøÁî®‰∏≠Êñ≠ÂíåÂª∂Êó∂ÂáΩÊï∞ÔºÅ
  17:application/robot.c ****     // Ëã•ÂøÖÈ°ª,ÂàôÂè™ÂÖÅËÆ∏‰ΩøÁî®DWT_Delay()
  18:application/robot.c ****     __disable_irq();
ARM GAS  C:\Users\blue\AppData\Local\Temp\ccS9PlXx.s 			page 10


 345              		.loc 3 18 5 view .LVU60
 346              	.LBB8:
 347              	.LBI8:
 348              		.file 4 "Drivers/CMSIS/Include/cmsis_gcc.h"
   1:Drivers/CMSIS/Include/cmsis_gcc.h **** /**************************************************************************//**
   2:Drivers/CMSIS/Include/cmsis_gcc.h ****  * @file     cmsis_gcc.h
   3:Drivers/CMSIS/Include/cmsis_gcc.h ****  * @brief    CMSIS compiler GCC header file
   4:Drivers/CMSIS/Include/cmsis_gcc.h ****  * @version  V5.2.0
   5:Drivers/CMSIS/Include/cmsis_gcc.h ****  * @date     08. May 2019
   6:Drivers/CMSIS/Include/cmsis_gcc.h ****  ******************************************************************************/
   7:Drivers/CMSIS/Include/cmsis_gcc.h **** /*
   8:Drivers/CMSIS/Include/cmsis_gcc.h ****  * Copyright (c) 2009-2019 Arm Limited. All rights reserved.
   9:Drivers/CMSIS/Include/cmsis_gcc.h ****  *
  10:Drivers/CMSIS/Include/cmsis_gcc.h ****  * SPDX-License-Identifier: Apache-2.0
  11:Drivers/CMSIS/Include/cmsis_gcc.h ****  *
  12:Drivers/CMSIS/Include/cmsis_gcc.h ****  * Licensed under the Apache License, Version 2.0 (the License); you may
  13:Drivers/CMSIS/Include/cmsis_gcc.h ****  * not use this file except in compliance with the License.
  14:Drivers/CMSIS/Include/cmsis_gcc.h ****  * You may obtain a copy of the License at
  15:Drivers/CMSIS/Include/cmsis_gcc.h ****  *
  16:Drivers/CMSIS/Include/cmsis_gcc.h ****  * www.apache.org/licenses/LICENSE-2.0
  17:Drivers/CMSIS/Include/cmsis_gcc.h ****  *
  18:Drivers/CMSIS/Include/cmsis_gcc.h ****  * Unless required by applicable law or agreed to in writing, software
  19:Drivers/CMSIS/Include/cmsis_gcc.h ****  * distributed under the License is distributed on an AS IS BASIS, WITHOUT
  20:Drivers/CMSIS/Include/cmsis_gcc.h ****  * WARRANTIES OR CONDITIONS OF ANY KIND, either express or implied.
  21:Drivers/CMSIS/Include/cmsis_gcc.h ****  * See the License for the specific language governing permissions and
  22:Drivers/CMSIS/Include/cmsis_gcc.h ****  * limitations under the License.
  23:Drivers/CMSIS/Include/cmsis_gcc.h ****  */
  24:Drivers/CMSIS/Include/cmsis_gcc.h **** 
  25:Drivers/CMSIS/Include/cmsis_gcc.h **** #ifndef __CMSIS_GCC_H
  26:Drivers/CMSIS/Include/cmsis_gcc.h **** #define __CMSIS_GCC_H
  27:Drivers/CMSIS/Include/cmsis_gcc.h **** 
  28:Drivers/CMSIS/Include/cmsis_gcc.h **** /* ignore some GCC warnings */
  29:Drivers/CMSIS/Include/cmsis_gcc.h **** #pragma GCC diagnostic push
  30:Drivers/CMSIS/Include/cmsis_gcc.h **** #pragma GCC diagnostic ignored "-Wsign-conversion"
  31:Drivers/CMSIS/Include/cmsis_gcc.h **** #pragma GCC diagnostic ignored "-Wconversion"
  32:Drivers/CMSIS/Include/cmsis_gcc.h **** #pragma GCC diagnostic ignored "-Wunused-parameter"
  33:Drivers/CMSIS/Include/cmsis_gcc.h **** 
  34:Drivers/CMSIS/Include/cmsis_gcc.h **** /* Fallback for __has_builtin */
  35:Drivers/CMSIS/Include/cmsis_gcc.h **** #ifndef __has_builtin
  36:Drivers/CMSIS/Include/cmsis_gcc.h ****   #define __has_builtin(x) (0)
  37:Drivers/CMSIS/Include/cmsis_gcc.h **** #endif
  38:Drivers/CMSIS/Include/cmsis_gcc.h **** 
  39:Drivers/CMSIS/Include/cmsis_gcc.h **** /* CMSIS compiler specific defines */
  40:Drivers/CMSIS/Include/cmsis_gcc.h **** #ifndef   __ASM
  41:Drivers/CMSIS/Include/cmsis_gcc.h ****   #define __ASM                                  __asm
  42:Drivers/CMSIS/Include/cmsis_gcc.h **** #endif
  43:Drivers/CMSIS/Include/cmsis_gcc.h **** #ifndef   __INLINE
  44:Drivers/CMSIS/Include/cmsis_gcc.h ****   #define __INLINE                               inline
  45:Drivers/CMSIS/Include/cmsis_gcc.h **** #endif
  46:Drivers/CMSIS/Include/cmsis_gcc.h **** #ifndef   __STATIC_INLINE
  47:Drivers/CMSIS/Include/cmsis_gcc.h ****   #define __STATIC_INLINE                        static inline
  48:Drivers/CMSIS/Include/cmsis_gcc.h **** #endif
  49:Drivers/CMSIS/Include/cmsis_gcc.h **** #ifndef   __STATIC_FORCEINLINE                 
  50:Drivers/CMSIS/Include/cmsis_gcc.h ****   #define __STATIC_FORCEINLINE                   __attribute__((always_inline)) static inline
  51:Drivers/CMSIS/Include/cmsis_gcc.h **** #endif                                           
  52:Drivers/CMSIS/Include/cmsis_gcc.h **** #ifndef   __NO_RETURN
  53:Drivers/CMSIS/Include/cmsis_gcc.h ****   #define __NO_RETURN                            __attribute__((__noreturn__))
ARM GAS  C:\Users\blue\AppData\Local\Temp\ccS9PlXx.s 			page 11


  54:Drivers/CMSIS/Include/cmsis_gcc.h **** #endif
  55:Drivers/CMSIS/Include/cmsis_gcc.h **** #ifndef   __USED
  56:Drivers/CMSIS/Include/cmsis_gcc.h ****   #define __USED                                 __attribute__((used))
  57:Drivers/CMSIS/Include/cmsis_gcc.h **** #endif
  58:Drivers/CMSIS/Include/cmsis_gcc.h **** #ifndef   __WEAK
  59:Drivers/CMSIS/Include/cmsis_gcc.h ****   #define __WEAK                                 __attribute__((weak))
  60:Drivers/CMSIS/Include/cmsis_gcc.h **** #endif
  61:Drivers/CMSIS/Include/cmsis_gcc.h **** #ifndef   __PACKED
  62:Drivers/CMSIS/Include/cmsis_gcc.h ****   #define __PACKED                               __attribute__((packed, aligned(1)))
  63:Drivers/CMSIS/Include/cmsis_gcc.h **** #endif
  64:Drivers/CMSIS/Include/cmsis_gcc.h **** #ifndef   __PACKED_STRUCT
  65:Drivers/CMSIS/Include/cmsis_gcc.h ****   #define __PACKED_STRUCT                        struct __attribute__((packed, aligned(1)))
  66:Drivers/CMSIS/Include/cmsis_gcc.h **** #endif
  67:Drivers/CMSIS/Include/cmsis_gcc.h **** #ifndef   __PACKED_UNION
  68:Drivers/CMSIS/Include/cmsis_gcc.h ****   #define __PACKED_UNION                         union __attribute__((packed, aligned(1)))
  69:Drivers/CMSIS/Include/cmsis_gcc.h **** #endif
  70:Drivers/CMSIS/Include/cmsis_gcc.h **** #ifndef   __UNALIGNED_UINT32        /* deprecated */
  71:Drivers/CMSIS/Include/cmsis_gcc.h ****   #pragma GCC diagnostic push
  72:Drivers/CMSIS/Include/cmsis_gcc.h ****   #pragma GCC diagnostic ignored "-Wpacked"
  73:Drivers/CMSIS/Include/cmsis_gcc.h ****   #pragma GCC diagnostic ignored "-Wattributes"
  74:Drivers/CMSIS/Include/cmsis_gcc.h ****   struct __attribute__((packed)) T_UINT32 { uint32_t v; };
  75:Drivers/CMSIS/Include/cmsis_gcc.h ****   #pragma GCC diagnostic pop
  76:Drivers/CMSIS/Include/cmsis_gcc.h ****   #define __UNALIGNED_UINT32(x)                  (((struct T_UINT32 *)(x))->v)
  77:Drivers/CMSIS/Include/cmsis_gcc.h **** #endif
  78:Drivers/CMSIS/Include/cmsis_gcc.h **** #ifndef   __UNALIGNED_UINT16_WRITE
  79:Drivers/CMSIS/Include/cmsis_gcc.h ****   #pragma GCC diagnostic push
  80:Drivers/CMSIS/Include/cmsis_gcc.h ****   #pragma GCC diagnostic ignored "-Wpacked"
  81:Drivers/CMSIS/Include/cmsis_gcc.h ****   #pragma GCC diagnostic ignored "-Wattributes"
  82:Drivers/CMSIS/Include/cmsis_gcc.h ****   __PACKED_STRUCT T_UINT16_WRITE { uint16_t v; };
  83:Drivers/CMSIS/Include/cmsis_gcc.h ****   #pragma GCC diagnostic pop
  84:Drivers/CMSIS/Include/cmsis_gcc.h ****   #define __UNALIGNED_UINT16_WRITE(addr, val)    (void)((((struct T_UINT16_WRITE *)(void *)(addr))-
  85:Drivers/CMSIS/Include/cmsis_gcc.h **** #endif
  86:Drivers/CMSIS/Include/cmsis_gcc.h **** #ifndef   __UNALIGNED_UINT16_READ
  87:Drivers/CMSIS/Include/cmsis_gcc.h ****   #pragma GCC diagnostic push
  88:Drivers/CMSIS/Include/cmsis_gcc.h ****   #pragma GCC diagnostic ignored "-Wpacked"
  89:Drivers/CMSIS/Include/cmsis_gcc.h ****   #pragma GCC diagnostic ignored "-Wattributes"
  90:Drivers/CMSIS/Include/cmsis_gcc.h ****   __PACKED_STRUCT T_UINT16_READ { uint16_t v; };
  91:Drivers/CMSIS/Include/cmsis_gcc.h ****   #pragma GCC diagnostic pop
  92:Drivers/CMSIS/Include/cmsis_gcc.h ****   #define __UNALIGNED_UINT16_READ(addr)          (((const struct T_UINT16_READ *)(const void *)(add
  93:Drivers/CMSIS/Include/cmsis_gcc.h **** #endif
  94:Drivers/CMSIS/Include/cmsis_gcc.h **** #ifndef   __UNALIGNED_UINT32_WRITE
  95:Drivers/CMSIS/Include/cmsis_gcc.h ****   #pragma GCC diagnostic push
  96:Drivers/CMSIS/Include/cmsis_gcc.h ****   #pragma GCC diagnostic ignored "-Wpacked"
  97:Drivers/CMSIS/Include/cmsis_gcc.h ****   #pragma GCC diagnostic ignored "-Wattributes"
  98:Drivers/CMSIS/Include/cmsis_gcc.h ****   __PACKED_STRUCT T_UINT32_WRITE { uint32_t v; };
  99:Drivers/CMSIS/Include/cmsis_gcc.h ****   #pragma GCC diagnostic pop
 100:Drivers/CMSIS/Include/cmsis_gcc.h ****   #define __UNALIGNED_UINT32_WRITE(addr, val)    (void)((((struct T_UINT32_WRITE *)(void *)(addr))-
 101:Drivers/CMSIS/Include/cmsis_gcc.h **** #endif
 102:Drivers/CMSIS/Include/cmsis_gcc.h **** #ifndef   __UNALIGNED_UINT32_READ
 103:Drivers/CMSIS/Include/cmsis_gcc.h ****   #pragma GCC diagnostic push
 104:Drivers/CMSIS/Include/cmsis_gcc.h ****   #pragma GCC diagnostic ignored "-Wpacked"
 105:Drivers/CMSIS/Include/cmsis_gcc.h ****   #pragma GCC diagnostic ignored "-Wattributes"
 106:Drivers/CMSIS/Include/cmsis_gcc.h ****   __PACKED_STRUCT T_UINT32_READ { uint32_t v; };
 107:Drivers/CMSIS/Include/cmsis_gcc.h ****   #pragma GCC diagnostic pop
 108:Drivers/CMSIS/Include/cmsis_gcc.h ****   #define __UNALIGNED_UINT32_READ(addr)          (((const struct T_UINT32_READ *)(const void *)(add
 109:Drivers/CMSIS/Include/cmsis_gcc.h **** #endif
 110:Drivers/CMSIS/Include/cmsis_gcc.h **** #ifndef   __ALIGNED
ARM GAS  C:\Users\blue\AppData\Local\Temp\ccS9PlXx.s 			page 12


 111:Drivers/CMSIS/Include/cmsis_gcc.h ****   #define __ALIGNED(x)                           __attribute__((aligned(x)))
 112:Drivers/CMSIS/Include/cmsis_gcc.h **** #endif
 113:Drivers/CMSIS/Include/cmsis_gcc.h **** #ifndef   __RESTRICT
 114:Drivers/CMSIS/Include/cmsis_gcc.h ****   #define __RESTRICT                             __restrict
 115:Drivers/CMSIS/Include/cmsis_gcc.h **** #endif
 116:Drivers/CMSIS/Include/cmsis_gcc.h **** #ifndef   __COMPILER_BARRIER
 117:Drivers/CMSIS/Include/cmsis_gcc.h ****   #define __COMPILER_BARRIER()                   __ASM volatile("":::"memory")
 118:Drivers/CMSIS/Include/cmsis_gcc.h **** #endif
 119:Drivers/CMSIS/Include/cmsis_gcc.h **** 
 120:Drivers/CMSIS/Include/cmsis_gcc.h **** /* #########################  Startup and Lowlevel Init  ######################## */
 121:Drivers/CMSIS/Include/cmsis_gcc.h **** 
 122:Drivers/CMSIS/Include/cmsis_gcc.h **** #ifndef __PROGRAM_START
 123:Drivers/CMSIS/Include/cmsis_gcc.h **** 
 124:Drivers/CMSIS/Include/cmsis_gcc.h **** /**
 125:Drivers/CMSIS/Include/cmsis_gcc.h ****   \brief   Initializes data and bss sections
 126:Drivers/CMSIS/Include/cmsis_gcc.h ****   \details This default implementations initialized all data and additional bss
 127:Drivers/CMSIS/Include/cmsis_gcc.h ****            sections relying on .copy.table and .zero.table specified properly
 128:Drivers/CMSIS/Include/cmsis_gcc.h ****            in the used linker script.
 129:Drivers/CMSIS/Include/cmsis_gcc.h ****   
 130:Drivers/CMSIS/Include/cmsis_gcc.h ****  */
 131:Drivers/CMSIS/Include/cmsis_gcc.h **** __STATIC_FORCEINLINE __NO_RETURN void __cmsis_start(void)
 132:Drivers/CMSIS/Include/cmsis_gcc.h **** {
 133:Drivers/CMSIS/Include/cmsis_gcc.h ****   extern void _start(void) __NO_RETURN;
 134:Drivers/CMSIS/Include/cmsis_gcc.h ****   
 135:Drivers/CMSIS/Include/cmsis_gcc.h ****   typedef struct {
 136:Drivers/CMSIS/Include/cmsis_gcc.h ****     uint32_t const* src;
 137:Drivers/CMSIS/Include/cmsis_gcc.h ****     uint32_t* dest;
 138:Drivers/CMSIS/Include/cmsis_gcc.h ****     uint32_t  wlen;
 139:Drivers/CMSIS/Include/cmsis_gcc.h ****   } __copy_table_t;
 140:Drivers/CMSIS/Include/cmsis_gcc.h ****   
 141:Drivers/CMSIS/Include/cmsis_gcc.h ****   typedef struct {
 142:Drivers/CMSIS/Include/cmsis_gcc.h ****     uint32_t* dest;
 143:Drivers/CMSIS/Include/cmsis_gcc.h ****     uint32_t  wlen;
 144:Drivers/CMSIS/Include/cmsis_gcc.h ****   } __zero_table_t;
 145:Drivers/CMSIS/Include/cmsis_gcc.h ****   
 146:Drivers/CMSIS/Include/cmsis_gcc.h ****   extern const __copy_table_t __copy_table_start__;
 147:Drivers/CMSIS/Include/cmsis_gcc.h ****   extern const __copy_table_t __copy_table_end__;
 148:Drivers/CMSIS/Include/cmsis_gcc.h ****   extern const __zero_table_t __zero_table_start__;
 149:Drivers/CMSIS/Include/cmsis_gcc.h ****   extern const __zero_table_t __zero_table_end__;
 150:Drivers/CMSIS/Include/cmsis_gcc.h **** 
 151:Drivers/CMSIS/Include/cmsis_gcc.h ****   for (__copy_table_t const* pTable = &__copy_table_start__; pTable < &__copy_table_end__; ++pTable
 152:Drivers/CMSIS/Include/cmsis_gcc.h ****     for(uint32_t i=0u; i<pTable->wlen; ++i) {
 153:Drivers/CMSIS/Include/cmsis_gcc.h ****       pTable->dest[i] = pTable->src[i];
 154:Drivers/CMSIS/Include/cmsis_gcc.h ****     }
 155:Drivers/CMSIS/Include/cmsis_gcc.h ****   }
 156:Drivers/CMSIS/Include/cmsis_gcc.h ****  
 157:Drivers/CMSIS/Include/cmsis_gcc.h ****   for (__zero_table_t const* pTable = &__zero_table_start__; pTable < &__zero_table_end__; ++pTable
 158:Drivers/CMSIS/Include/cmsis_gcc.h ****     for(uint32_t i=0u; i<pTable->wlen; ++i) {
 159:Drivers/CMSIS/Include/cmsis_gcc.h ****       pTable->dest[i] = 0u;
 160:Drivers/CMSIS/Include/cmsis_gcc.h ****     }
 161:Drivers/CMSIS/Include/cmsis_gcc.h ****   }
 162:Drivers/CMSIS/Include/cmsis_gcc.h ****  
 163:Drivers/CMSIS/Include/cmsis_gcc.h ****   _start();
 164:Drivers/CMSIS/Include/cmsis_gcc.h **** }
 165:Drivers/CMSIS/Include/cmsis_gcc.h ****   
 166:Drivers/CMSIS/Include/cmsis_gcc.h **** #define __PROGRAM_START           __cmsis_start
 167:Drivers/CMSIS/Include/cmsis_gcc.h **** #endif
ARM GAS  C:\Users\blue\AppData\Local\Temp\ccS9PlXx.s 			page 13


 168:Drivers/CMSIS/Include/cmsis_gcc.h **** 
 169:Drivers/CMSIS/Include/cmsis_gcc.h **** #ifndef __INITIAL_SP
 170:Drivers/CMSIS/Include/cmsis_gcc.h **** #define __INITIAL_SP              __StackTop
 171:Drivers/CMSIS/Include/cmsis_gcc.h **** #endif
 172:Drivers/CMSIS/Include/cmsis_gcc.h **** 
 173:Drivers/CMSIS/Include/cmsis_gcc.h **** #ifndef __STACK_LIMIT
 174:Drivers/CMSIS/Include/cmsis_gcc.h **** #define __STACK_LIMIT             __StackLimit
 175:Drivers/CMSIS/Include/cmsis_gcc.h **** #endif
 176:Drivers/CMSIS/Include/cmsis_gcc.h **** 
 177:Drivers/CMSIS/Include/cmsis_gcc.h **** #ifndef __VECTOR_TABLE
 178:Drivers/CMSIS/Include/cmsis_gcc.h **** #define __VECTOR_TABLE            __Vectors
 179:Drivers/CMSIS/Include/cmsis_gcc.h **** #endif
 180:Drivers/CMSIS/Include/cmsis_gcc.h **** 
 181:Drivers/CMSIS/Include/cmsis_gcc.h **** #ifndef __VECTOR_TABLE_ATTRIBUTE
 182:Drivers/CMSIS/Include/cmsis_gcc.h **** #define __VECTOR_TABLE_ATTRIBUTE  __attribute((used, section(".vectors")))
 183:Drivers/CMSIS/Include/cmsis_gcc.h **** #endif
 184:Drivers/CMSIS/Include/cmsis_gcc.h **** 
 185:Drivers/CMSIS/Include/cmsis_gcc.h **** /* ###########################  Core Function Access  ########################### */
 186:Drivers/CMSIS/Include/cmsis_gcc.h **** /** \ingroup  CMSIS_Core_FunctionInterface
 187:Drivers/CMSIS/Include/cmsis_gcc.h ****     \defgroup CMSIS_Core_RegAccFunctions CMSIS Core Register Access Functions
 188:Drivers/CMSIS/Include/cmsis_gcc.h ****   @{
 189:Drivers/CMSIS/Include/cmsis_gcc.h ****  */
 190:Drivers/CMSIS/Include/cmsis_gcc.h **** 
 191:Drivers/CMSIS/Include/cmsis_gcc.h **** /**
 192:Drivers/CMSIS/Include/cmsis_gcc.h ****   \brief   Enable IRQ Interrupts
 193:Drivers/CMSIS/Include/cmsis_gcc.h ****   \details Enables IRQ interrupts by clearing the I-bit in the CPSR.
 194:Drivers/CMSIS/Include/cmsis_gcc.h ****            Can only be executed in Privileged modes.
 195:Drivers/CMSIS/Include/cmsis_gcc.h ****  */
 196:Drivers/CMSIS/Include/cmsis_gcc.h **** __STATIC_FORCEINLINE void __enable_irq(void)
 197:Drivers/CMSIS/Include/cmsis_gcc.h **** {
 198:Drivers/CMSIS/Include/cmsis_gcc.h ****   __ASM volatile ("cpsie i" : : : "memory");
 199:Drivers/CMSIS/Include/cmsis_gcc.h **** }
 200:Drivers/CMSIS/Include/cmsis_gcc.h **** 
 201:Drivers/CMSIS/Include/cmsis_gcc.h **** 
 202:Drivers/CMSIS/Include/cmsis_gcc.h **** /**
 203:Drivers/CMSIS/Include/cmsis_gcc.h ****   \brief   Disable IRQ Interrupts
 204:Drivers/CMSIS/Include/cmsis_gcc.h ****   \details Disables IRQ interrupts by setting the I-bit in the CPSR.
 205:Drivers/CMSIS/Include/cmsis_gcc.h ****            Can only be executed in Privileged modes.
 206:Drivers/CMSIS/Include/cmsis_gcc.h ****  */
 207:Drivers/CMSIS/Include/cmsis_gcc.h **** __STATIC_FORCEINLINE void __disable_irq(void)
 349              		.loc 4 207 27 view .LVU61
 350              	.LBB9:
 208:Drivers/CMSIS/Include/cmsis_gcc.h **** {
 209:Drivers/CMSIS/Include/cmsis_gcc.h ****   __ASM volatile ("cpsid i" : : : "memory");
 351              		.loc 4 209 3 view .LVU62
 352              		.syntax unified
 353              	@ 209 "Drivers/CMSIS/Include/cmsis_gcc.h" 1
 354 0002 72B6     		cpsid i
 355              	@ 0 "" 2
 356              		.thumb
 357              		.syntax unified
 358              	.LBE9:
 359              	.LBE8:
  19:application/robot.c **** 
  20:application/robot.c ****     BSPInit();
 360              		.loc 3 20 5 view .LVU63
 361 0004 FFF7FEFF 		bl	BSPInit
ARM GAS  C:\Users\blue\AppData\Local\Temp\ccS9PlXx.s 			page 14


 362              	.LVL20:
  21:application/robot.c ****     ChassisInit();
 363              		.loc 3 21 5 view .LVU64
 364 0008 FFF7FEFF 		bl	ChassisInit
 365              	.LVL21:
  22:application/robot.c ****     RobotCMDInit();
 366              		.loc 3 22 5 view .LVU65
 367 000c FFF7FEFF 		bl	RobotCMDInit
 368              	.LVL22:
  23:application/robot.c ****     OSTaskInit(); // ÂàõÂª∫Âü∫Á°Ä‰ªªÂä°
 369              		.loc 3 23 5 view .LVU66
 370 0010 FFF7FEFF 		bl	OSTaskInit
 371              	.LVL23:
  24:application/robot.c ****     // // ÂàùÂßãÂåñÂÆåÊàê,ÂºÄÂêØ‰∏≠Êñ≠
  25:application/robot.c ****     __enable_irq();
 372              		.loc 3 25 5 view .LVU67
 373              	.LBB10:
 374              	.LBI10:
 196:Drivers/CMSIS/Include/cmsis_gcc.h **** {
 375              		.loc 4 196 27 view .LVU68
 376              	.LBB11:
 198:Drivers/CMSIS/Include/cmsis_gcc.h **** }
 377              		.loc 4 198 3 view .LVU69
 378              		.syntax unified
 379              	@ 198 "Drivers/CMSIS/Include/cmsis_gcc.h" 1
 380 0014 62B6     		cpsie i
 381              	@ 0 "" 2
 382              		.thumb
 383              		.syntax unified
 384              	.LBE11:
 385              	.LBE10:
  26:application/robot.c **** }
 386              		.loc 3 26 1 is_stmt 0 view .LVU70
 387 0016 08BD     		pop	{r3, pc}
 388              		.cfi_endproc
 389              	.LFE156:
 391              		.section	.text.RobotTask,"ax",%progbits
 392              		.align	1
 393              		.global	RobotTask
 394              		.syntax unified
 395              		.thumb
 396              		.thumb_func
 398              	RobotTask:
 399              	.LFB157:
  27:application/robot.c **** 
  28:application/robot.c **** void RobotTask()
  29:application/robot.c **** {
 400              		.loc 3 29 1 is_stmt 1 view -0
 401              		.cfi_startproc
 402              		@ args = 0, pretend = 0, frame = 0
 403              		@ frame_needed = 0, uses_anonymous_args = 0
 404 0000 08B5     		push	{r3, lr}
 405              	.LCFI8:
 406              		.cfi_def_cfa_offset 8
 407              		.cfi_offset 3, -8
 408              		.cfi_offset 14, -4
  30:application/robot.c ****     RobotCMDTask();
ARM GAS  C:\Users\blue\AppData\Local\Temp\ccS9PlXx.s 			page 15


 409              		.loc 3 30 5 view .LVU72
 410 0002 FFF7FEFF 		bl	RobotCMDTask
 411              	.LVL24:
  31:application/robot.c ****     ChassisTask();
 412              		.loc 3 31 5 view .LVU73
 413 0006 FFF7FEFF 		bl	ChassisTask
 414              	.LVL25:
  32:application/robot.c **** }
 415              		.loc 3 32 1 is_stmt 0 view .LVU74
 416 000a 08BD     		pop	{r3, pc}
 417              		.cfi_endproc
 418              	.LFE157:
 420              		.section	.text.StartROBOTTASK,"ax",%progbits
 421              		.align	1
 422              		.global	StartROBOTTASK
 423              		.syntax unified
 424              		.thumb
 425              		.thumb_func
 427              	StartROBOTTASK:
 428              	.LFB153:
  94:application/robot_task.h **** {
 429              		.loc 1 94 1 is_stmt 1 view -0
 430              		.cfi_startproc
 431              		@ Volatile: function does not return.
 432              		@ args = 0, pretend = 0, frame = 0
 433              		@ frame_needed = 0, uses_anonymous_args = 0
 434              	.LVL26:
  94:application/robot_task.h **** {
 435              		.loc 1 94 1 is_stmt 0 view .LVU76
 436 0000 08B5     		push	{r3, lr}
 437              	.LCFI9:
 438              		.cfi_def_cfa_offset 8
 439              		.cfi_offset 3, -8
 440              		.cfi_offset 14, -4
 441              	.LVL27:
 442              	.L26:
  99:application/robot_task.h ****     for (;;)
 443              		.loc 1 99 5 is_stmt 1 discriminator 1 view .LVU77
 103:application/robot_task.h ****         RobotTask();
 444              		.loc 1 103 9 discriminator 1 view .LVU78
 445 0002 FFF7FEFF 		bl	RobotTask
 446              	.LVL28:
 109:application/robot_task.h ****         osDelay(2);
 447              		.loc 1 109 9 discriminator 1 view .LVU79
 448 0006 0220     		movs	r0, #2
 449 0008 FFF7FEFF 		bl	osDelay
 450              	.LVL29:
  99:application/robot_task.h ****     for (;;)
 451              		.loc 1 99 11 discriminator 1 view .LVU80
 452 000c F9E7     		b	.L26
 453              		.cfi_endproc
 454              	.LFE153:
 456              		.global	lidarTaskHandle
 457              		.global	waterTaskHandle
 458              		.global	daemonTaskHandle
 459              		.global	motorTaskHandle
 460              		.global	robotTaskHandle
ARM GAS  C:\Users\blue\AppData\Local\Temp\ccS9PlXx.s 			page 16


 461              		.section	.rodata
 462              		.align	2
 463              		.set	.LANCHOR4,. + 0
 464              	.LC6:
 465 0000 00000000 		.word	.LC0
 466 0004 00000000 		.word	StartMOTORTASK
 467 0008 0000     		.short	0
 468 000a 0000     		.space	2
 469 000c 00000000 		.word	0
 470 0010 00020000 		.word	512
 471 0014 00000000 		.word	0
 472 0018 00000000 		.word	0
 473              	.LC7:
 474 001c 0C000000 		.word	.LC2
 475 0020 00000000 		.word	StartDAEMONTASK
 476 0024 0000     		.short	0
 477 0026 0000     		.space	2
 478 0028 00000000 		.word	0
 479 002c 80000000 		.word	128
 480 0030 00000000 		.word	0
 481 0034 00000000 		.word	0
 482              	.LC8:
 483 0038 18000000 		.word	.LC4
 484 003c 00000000 		.word	StartROBOTTASK
 485 0040 0000     		.short	0
 486 0042 0000     		.space	2
 487 0044 00000000 		.word	0
 488 0048 00040000 		.word	1024
 489 004c 00000000 		.word	0
 490 0050 00000000 		.word	0
 491              		.section	.bss.daemonTaskHandle,"aw",%nobits
 492              		.align	2
 493              		.set	.LANCHOR6,. + 0
 496              	daemonTaskHandle:
 497 0000 00000000 		.space	4
 498              		.section	.bss.daemon_dt.0,"aw",%nobits
 499              		.align	2
 500              		.set	.LANCHOR3,. + 0
 503              	daemon_dt.0:
 504 0000 00000000 		.space	4
 505              		.section	.bss.daemon_start.1,"aw",%nobits
 506              		.align	2
 507              		.set	.LANCHOR2,. + 0
 510              	daemon_start.1:
 511 0000 00000000 		.space	4
 512              		.section	.bss.lidarTaskHandle,"aw",%nobits
 513              		.align	2
 516              	lidarTaskHandle:
 517 0000 00000000 		.space	4
 518              		.section	.bss.motorTaskHandle,"aw",%nobits
 519              		.align	2
 520              		.set	.LANCHOR5,. + 0
 523              	motorTaskHandle:
 524 0000 00000000 		.space	4
 525              		.section	.bss.motor_dt.2,"aw",%nobits
 526              		.align	2
 527              		.set	.LANCHOR1,. + 0
ARM GAS  C:\Users\blue\AppData\Local\Temp\ccS9PlXx.s 			page 17


 530              	motor_dt.2:
 531 0000 00000000 		.space	4
 532              		.section	.bss.motor_start.3,"aw",%nobits
 533              		.align	2
 534              		.set	.LANCHOR0,. + 0
 537              	motor_start.3:
 538 0000 00000000 		.space	4
 539              		.section	.bss.robotTaskHandle,"aw",%nobits
 540              		.align	2
 541              		.set	.LANCHOR7,. + 0
 544              	robotTaskHandle:
 545 0000 00000000 		.space	4
 546              		.section	.bss.waterTaskHandle,"aw",%nobits
 547              		.align	2
 550              	waterTaskHandle:
 551 0000 00000000 		.space	4
 552              		.text
 553              	.Letext0:
 554              		.file 5 "d:\\rm\\arm-gnu-toolchian\\arm-none-eabi\\include\\machine\\_default_types.h"
 555              		.file 6 "d:\\rm\\arm-gnu-toolchian\\arm-none-eabi\\include\\sys\\_stdint.h"
 556              		.file 7 "Middlewares/Third_Party/FreeRTOS/Source/portable/GCC/ARM_CM4F/portmacro.h"
 557              		.file 8 "Middlewares/Third_Party/FreeRTOS/Source/include/FreeRTOS.h"
 558              		.file 9 "Middlewares/Third_Party/FreeRTOS/Source/include/task.h"
 559              		.file 10 "Middlewares/Third_Party/FreeRTOS/Source/CMSIS_RTOS/cmsis_os.h"
 560              		.file 11 "application/cmd/robot_cmd.h"
 561              		.file 12 "application/chassis/chassis.h"
 562              		.file 13 "bsp/dwt/bsp_dwt.h"
 563              		.file 14 "modules/daemon/daemon.h"
ARM GAS  C:\Users\blue\AppData\Local\Temp\ccS9PlXx.s 			page 18

