ARM GAS  C:\Users\blue\AppData\Local\Temp\ccg1XBVw.s 			page 1


   1              		.cpu cortex-m7
   2              		.arch armv7e-m
   3              		.fpu fpv5-d16
   4              		.eabi_attribute 28, 1
   5              		.eabi_attribute 20, 1
   6              		.eabi_attribute 21, 1
   7              		.eabi_attribute 23, 3
   8              		.eabi_attribute 24, 1
   9              		.eabi_attribute 25, 1
  10              		.eabi_attribute 26, 1
  11              		.eabi_attribute 30, 1
  12              		.eabi_attribute 34, 1
  13              		.eabi_attribute 18, 4
  14              		.file	"servo_ctrl.c"
  15              		.text
  16              	.Ltext0:
  17              		.cfi_sections	.debug_frame
  18              		.section	.text.moveServo,"ax",%progbits
  19              		.align	1
  20              		.global	moveServo
  21              		.syntax unified
  22              		.thumb
  23              		.thumb_func
  25              	moveServo:
  26              	.LVL0:
  27              	.LFB144:
  28              		.file 1 "modules/motor/servo_ctrl/servo_ctrl.c"
   1:modules/motor/servo_ctrl/servo_ctrl.c **** #include "servo_ctrl.h"
   2:modules/motor/servo_ctrl/servo_ctrl.c **** #include "bsp_usart.h"
   3:modules/motor/servo_ctrl/servo_ctrl.c **** #include <stdarg.h>
   4:modules/motor/servo_ctrl/servo_ctrl.c **** #include <string.h>
   5:modules/motor/servo_ctrl/servo_ctrl.c **** // #include "bool.h"
   6:modules/motor/servo_ctrl/servo_ctrl.c **** 
   7:modules/motor/servo_ctrl/servo_ctrl.c **** #define FRAME_HEADER 0x55            // å¸§å¤´
   8:modules/motor/servo_ctrl/servo_ctrl.c **** #define CMD_SERVO_MOVE 0x03          // èˆµæœºç§»åŠ¨æŒ‡ä»¤
   9:modules/motor/servo_ctrl/servo_ctrl.c **** #define CMD_ACTION_GROUP_RUN 0x06    // è¿è¡ŒåŠ¨ä½œç»„æŒ‡ä»¤
  10:modules/motor/servo_ctrl/servo_ctrl.c **** #define CMD_ACTION_GROUP_STOP 0x07   // åœæ­¢åŠ¨ä½œç»„æŒ‡ä»¤
  11:modules/motor/servo_ctrl/servo_ctrl.c **** #define CMD_ACTION_GROUP_SPEED 0x0B  // è®¾ç½®åŠ¨ä½œç»„è¿è¡Œé€Ÿåº¦
  12:modules/motor/servo_ctrl/servo_ctrl.c **** #define CMD_GET_BATTERY_VOLTAGE 0x0F // è·å–ç”µæ± ç”µå‹æŒ‡ä»¤
  13:modules/motor/servo_ctrl/servo_ctrl.c **** 
  14:modules/motor/servo_ctrl/servo_ctrl.c **** #define GET_LOW_BYTE(A) ((uint8_t)(A))         // å®ç°è·å¾—Açš„ä½å…«ä½
  15:modules/motor/servo_ctrl/servo_ctrl.c **** #define GET_HIGH_BYTE(A) ((uint8_t)((A) >> 8)) // å®ç°è·å¾—Açš„é«˜å…«ä½
  16:modules/motor/servo_ctrl/servo_ctrl.c **** 
  17:modules/motor/servo_ctrl/servo_ctrl.c **** static uint8_t LobotTxBuf[128]; // å‘é€ç¼“å­˜åŒº
  18:modules/motor/servo_ctrl/servo_ctrl.c **** uint16_t batteryVolt;
  19:modules/motor/servo_ctrl/servo_ctrl.c **** 
  20:modules/motor/servo_ctrl/servo_ctrl.c **** static USARTInstance *lobotUsartInstance;
  21:modules/motor/servo_ctrl/servo_ctrl.c **** /*===================== private =====================*/
  22:modules/motor/servo_ctrl/servo_ctrl.c **** /*********************************************************************************
  23:modules/motor/servo_ctrl/servo_ctrl.c **** 
  24:modules/motor/servo_ctrl/servo_ctrl.c **** Function: moveServo
  25:modules/motor/servo_ctrl/servo_ctrl.c **** 
  26:modules/motor/servo_ctrl/servo_ctrl.c **** Descriptionï¼š æ§åˆ¶å•ä¸ªèˆæœºè½¬åŠ¨
  27:modules/motor/servo_ctrl/servo_ctrl.c **** 
  28:modules/motor/servo_ctrl/servo_ctrl.c **** Parameters: sevoID:èˆæœºIDï¼ŒPosition:ç›®æ ‡ä½ç½®,Time:è½¬åŠ¨æ—¶é—´
  29:modules/motor/servo_ctrl/servo_ctrl.c **** èˆæœºIDå–å€¼:0<=èˆæœºID<=31,Timeå–å€¼: Time > 0
  30:modules/motor/servo_ctrl/servo_ctrl.c **** 
ARM GAS  C:\Users\blue\AppData\Local\Temp\ccg1XBVw.s 			page 2


  31:modules/motor/servo_ctrl/servo_ctrl.c **** Return: æ— è¿”å›
  32:modules/motor/servo_ctrl/servo_ctrl.c **** 
  33:modules/motor/servo_ctrl/servo_ctrl.c **** Others:
  34:modules/motor/servo_ctrl/servo_ctrl.c **** **********************************************************************************/
  35:modules/motor/servo_ctrl/servo_ctrl.c **** void moveServo(uint8_t servoID, uint16_t Position, uint16_t Time)
  36:modules/motor/servo_ctrl/servo_ctrl.c **** {
  29              		.loc 1 36 1 view -0
  30              		.cfi_startproc
  31              		@ args = 0, pretend = 0, frame = 0
  32              		@ frame_needed = 0, uses_anonymous_args = 0
  37:modules/motor/servo_ctrl/servo_ctrl.c ****     if (servoID > 31 || !(Time > 0))
  33              		.loc 1 37 5 view .LVU1
  34              		.loc 1 37 25 is_stmt 0 view .LVU2
  35 0000 9446     		mov	ip, r2
  36 0002 B2FA82F2 		clz	r2, r2
  37              	.LVL1:
  38              		.loc 1 37 25 view .LVU3
  39 0006 5209     		lsrs	r2, r2, #5
  40              		.loc 1 37 22 view .LVU4
  41 0008 1F28     		cmp	r0, #31
  42 000a 88BF     		it	hi
  43 000c 42F00102 		orrhi	r2, r2, #1
  44              		.loc 1 37 8 view .LVU5
  45 0010 EAB9     		cbnz	r2, .L4
  36:modules/motor/servo_ctrl/servo_ctrl.c ****     if (servoID > 31 || !(Time > 0))
  46              		.loc 1 36 1 view .LVU6
  47 0012 08B5     		push	{r3, lr}
  48              	.LCFI0:
  49              		.cfi_def_cfa_offset 8
  50              		.cfi_offset 3, -8
  51              		.cfi_offset 14, -4
  38:modules/motor/servo_ctrl/servo_ctrl.c ****     { // èˆæœºIDä¸èƒ½å¤§äº31,å¯æ ¹æ®å¯¹åº”æ§åˆ¶æ¿ä¿®æ”¹
  39:modules/motor/servo_ctrl/servo_ctrl.c ****         return;
  40:modules/motor/servo_ctrl/servo_ctrl.c ****     }
  41:modules/motor/servo_ctrl/servo_ctrl.c ****     LobotTxBuf[0] = LobotTxBuf[1] = FRAME_HEADER; // å¡«å……å¸§å¤´
  52              		.loc 1 41 5 is_stmt 1 view .LVU7
  53              		.loc 1 41 35 is_stmt 0 view .LVU8
  54 0014 0E4B     		ldr	r3, .L7
  55 0016 5522     		movs	r2, #85
  56 0018 5A70     		strb	r2, [r3, #1]
  57              		.loc 1 41 19 view .LVU9
  58 001a 1A70     		strb	r2, [r3]
  42:modules/motor/servo_ctrl/servo_ctrl.c ****     LobotTxBuf[2] = 8;
  59              		.loc 1 42 5 is_stmt 1 view .LVU10
  60              		.loc 1 42 19 is_stmt 0 view .LVU11
  61 001c 0822     		movs	r2, #8
  62 001e 9A70     		strb	r2, [r3, #2]
  43:modules/motor/servo_ctrl/servo_ctrl.c ****     LobotTxBuf[3] = CMD_SERVO_MOVE;          // å¡«å……èˆæœºç§»åŠ¨æŒ‡ä»¤
  63              		.loc 1 43 5 is_stmt 1 view .LVU12
  64              		.loc 1 43 19 is_stmt 0 view .LVU13
  65 0020 0322     		movs	r2, #3
  66 0022 DA70     		strb	r2, [r3, #3]
  44:modules/motor/servo_ctrl/servo_ctrl.c ****     LobotTxBuf[4] = 1;                       // è¦æ§åˆ¶çš„èˆæœºä¸ªæ•°
  67              		.loc 1 44 5 is_stmt 1 view .LVU14
  68              		.loc 1 44 19 is_stmt 0 view .LVU15
  69 0024 0122     		movs	r2, #1
  70 0026 1A71     		strb	r2, [r3, #4]
ARM GAS  C:\Users\blue\AppData\Local\Temp\ccg1XBVw.s 			page 3


  45:modules/motor/servo_ctrl/servo_ctrl.c ****     LobotTxBuf[5] = GET_LOW_BYTE(Time);      // å–å¾—æ—¶é—´çš„ä½å…«ä½
  71              		.loc 1 45 5 is_stmt 1 view .LVU16
  72              		.loc 1 45 19 is_stmt 0 view .LVU17
  73 0028 83F805C0 		strb	ip, [r3, #5]
  46:modules/motor/servo_ctrl/servo_ctrl.c ****     LobotTxBuf[6] = GET_HIGH_BYTE(Time);     // å–å¾—æ—¶é—´çš„é«˜å…«ä½
  74              		.loc 1 46 5 is_stmt 1 view .LVU18
  75              		.loc 1 46 21 is_stmt 0 view .LVU19
  76 002c 4FEA1C2C 		lsr	ip, ip, #8
  77              		.loc 1 46 19 view .LVU20
  78 0030 83F806C0 		strb	ip, [r3, #6]
  47:modules/motor/servo_ctrl/servo_ctrl.c ****     LobotTxBuf[7] = servoID;                 // èˆæœºID
  79              		.loc 1 47 5 is_stmt 1 view .LVU21
  80              		.loc 1 47 19 is_stmt 0 view .LVU22
  81 0034 D871     		strb	r0, [r3, #7]
  48:modules/motor/servo_ctrl/servo_ctrl.c ****     LobotTxBuf[8] = GET_LOW_BYTE(Position);  // å–å¾—ç›®æ ‡ä½ç½®çš„ä½å…«ä½
  82              		.loc 1 48 5 is_stmt 1 view .LVU23
  83              		.loc 1 48 19 is_stmt 0 view .LVU24
  84 0036 1972     		strb	r1, [r3, #8]
  49:modules/motor/servo_ctrl/servo_ctrl.c ****     LobotTxBuf[9] = GET_HIGH_BYTE(Position); // å–å¾—ç›®æ ‡ä½ç½®çš„é«˜å…«ä½
  85              		.loc 1 49 5 is_stmt 1 view .LVU25
  86              		.loc 1 49 21 is_stmt 0 view .LVU26
  87 0038 090A     		lsrs	r1, r1, #8
  88              	.LVL2:
  89              		.loc 1 49 19 view .LVU27
  90 003a 5972     		strb	r1, [r3, #9]
  50:modules/motor/servo_ctrl/servo_ctrl.c **** 
  51:modules/motor/servo_ctrl/servo_ctrl.c ****     if (lobotUsartInstance != NULL)
  91              		.loc 1 51 5 is_stmt 1 view .LVU28
  92              		.loc 1 51 28 is_stmt 0 view .LVU29
  93 003c 054B     		ldr	r3, .L7+4
  94 003e 1868     		ldr	r0, [r3]
  95              	.LVL3:
  96              		.loc 1 51 8 view .LVU30
  97 0040 20B1     		cbz	r0, .L1
  52:modules/motor/servo_ctrl/servo_ctrl.c ****     {
  53:modules/motor/servo_ctrl/servo_ctrl.c ****         USARTSend(lobotUsartInstance, LobotTxBuf, 10, USART_TRANSFER_BLOCKING);
  98              		.loc 1 53 9 is_stmt 1 view .LVU31
  99 0042 1346     		mov	r3, r2
 100 0044 0A22     		movs	r2, #10
 101 0046 0249     		ldr	r1, .L7
 102              		.loc 1 53 9 is_stmt 0 view .LVU32
 103 0048 FFF7FEFF 		bl	USARTSend
 104              	.LVL4:
 105              	.L1:
  54:modules/motor/servo_ctrl/servo_ctrl.c ****     }
  55:modules/motor/servo_ctrl/servo_ctrl.c **** }
 106              		.loc 1 55 1 view .LVU33
 107 004c 08BD     		pop	{r3, pc}
 108              	.LVL5:
 109              	.L4:
 110              	.LCFI1:
 111              		.cfi_def_cfa_offset 0
 112              		.cfi_restore 3
 113              		.cfi_restore 14
 114              		.loc 1 55 1 view .LVU34
 115 004e 7047     		bx	lr
 116              	.L8:
ARM GAS  C:\Users\blue\AppData\Local\Temp\ccg1XBVw.s 			page 4


 117              		.align	2
 118              	.L7:
 119 0050 00000000 		.word	.LANCHOR0
 120 0054 00000000 		.word	.LANCHOR1
 121              		.cfi_endproc
 122              	.LFE144:
 124              		.section	.text.moveServosByArray,"ax",%progbits
 125              		.align	1
 126              		.global	moveServosByArray
 127              		.syntax unified
 128              		.thumb
 129              		.thumb_func
 131              	moveServosByArray:
 132              	.LVL6:
 133              	.LFB145:
  56:modules/motor/servo_ctrl/servo_ctrl.c **** 
  57:modules/motor/servo_ctrl/servo_ctrl.c **** /*********************************************************************************
  58:modules/motor/servo_ctrl/servo_ctrl.c **** 
  59:modules/motor/servo_ctrl/servo_ctrl.c **** Function: moveServosByArray
  60:modules/motor/servo_ctrl/servo_ctrl.c **** 
  61:modules/motor/servo_ctrl/servo_ctrl.c **** Descriptionï¼š æ§åˆ¶å¤šä¸ªèˆæœºè½¬åŠ¨
  62:modules/motor/servo_ctrl/servo_ctrl.c **** 
  63:modules/motor/servo_ctrl/servo_ctrl.c **** Parameters: servos[]:èˆæœºç»“æ„ä½“æ•°ç»„ï¼ŒNum:èˆæœºä¸ªæ•°,Time:è½¬åŠ¨æ—¶é—´
  64:modules/motor/servo_ctrl/servo_ctrl.c **** 0 < Num <= 32,Time > 0
  65:modules/motor/servo_ctrl/servo_ctrl.c **** 
  66:modules/motor/servo_ctrl/servo_ctrl.c **** Return: æ— è¿”å›
  67:modules/motor/servo_ctrl/servo_ctrl.c **** 
  68:modules/motor/servo_ctrl/servo_ctrl.c **** Others:
  69:modules/motor/servo_ctrl/servo_ctrl.c **** **********************************************************************************/
  70:modules/motor/servo_ctrl/servo_ctrl.c **** void moveServosByArray(LobotServo servos[], uint8_t Num, uint16_t Time)
  71:modules/motor/servo_ctrl/servo_ctrl.c **** {
 134              		.loc 1 71 1 is_stmt 1 view -0
 135              		.cfi_startproc
 136              		@ args = 0, pretend = 0, frame = 0
 137              		@ frame_needed = 0, uses_anonymous_args = 0
  72:modules/motor/servo_ctrl/servo_ctrl.c ****     uint8_t index = 7;
 138              		.loc 1 72 5 view .LVU36
  73:modules/motor/servo_ctrl/servo_ctrl.c ****     uint8_t i = 0;
 139              		.loc 1 73 5 view .LVU37
  74:modules/motor/servo_ctrl/servo_ctrl.c **** 
  75:modules/motor/servo_ctrl/servo_ctrl.c ****     if (Num < 1 || Num > 32 || !(Time > 0))
 140              		.loc 1 75 5 view .LVU38
 141              		.loc 1 75 17 is_stmt 0 view .LVU39
 142 0000 4B1E     		subs	r3, r1, #1
 143 0002 DBB2     		uxtb	r3, r3
 144              		.loc 1 75 8 view .LVU40
 145 0004 1F2B     		cmp	r3, #31
 146 0006 3AD8     		bhi	.L14
 147              		.loc 1 75 29 discriminator 1 view .LVU41
 148 0008 002A     		cmp	r2, #0
 149 000a 38D0     		beq	.L14
  71:modules/motor/servo_ctrl/servo_ctrl.c ****     uint8_t index = 7;
 150              		.loc 1 71 1 view .LVU42
 151 000c 70B5     		push	{r4, r5, r6, lr}
 152              	.LCFI2:
 153              		.cfi_def_cfa_offset 16
 154              		.cfi_offset 4, -16
ARM GAS  C:\Users\blue\AppData\Local\Temp\ccg1XBVw.s 			page 5


 155              		.cfi_offset 5, -12
 156              		.cfi_offset 6, -8
 157              		.cfi_offset 14, -4
  76:modules/motor/servo_ctrl/servo_ctrl.c ****     {
  77:modules/motor/servo_ctrl/servo_ctrl.c ****         return; // èˆæœºæ•°ä¸èƒ½ä¸ºé›¶å’Œå¤§äº32ï¼Œæ—¶é—´ä¸èƒ½ä¸ºé›¶
  78:modules/motor/servo_ctrl/servo_ctrl.c ****     }
  79:modules/motor/servo_ctrl/servo_ctrl.c ****     LobotTxBuf[0] = LobotTxBuf[1] = FRAME_HEADER; // å¡«å……å¸§å¤´
 158              		.loc 1 79 5 is_stmt 1 view .LVU43
 159              		.loc 1 79 35 is_stmt 0 view .LVU44
 160 000e 1C4B     		ldr	r3, .L17
 161 0010 5524     		movs	r4, #85
 162 0012 5C70     		strb	r4, [r3, #1]
 163              		.loc 1 79 19 view .LVU45
 164 0014 1C70     		strb	r4, [r3]
  80:modules/motor/servo_ctrl/servo_ctrl.c ****     LobotTxBuf[2] = Num * 3 + 5;                  // æ•°æ®é•¿åº¦ = è¦æ§åˆ¶èˆæœºæ•°*3+5
 165              		.loc 1 80 5 is_stmt 1 view .LVU46
 166              		.loc 1 80 29 is_stmt 0 view .LVU47
 167 0016 01EB4104 		add	r4, r1, r1, lsl #1
 168 001a 0534     		adds	r4, r4, #5
 169              		.loc 1 80 19 view .LVU48
 170 001c 9C70     		strb	r4, [r3, #2]
  81:modules/motor/servo_ctrl/servo_ctrl.c ****     LobotTxBuf[3] = CMD_SERVO_MOVE;               // å¡«å……èˆæœºç§»åŠ¨æŒ‡ä»¤
 171              		.loc 1 81 5 is_stmt 1 view .LVU49
 172              		.loc 1 81 19 is_stmt 0 view .LVU50
 173 001e 0324     		movs	r4, #3
 174 0020 DC70     		strb	r4, [r3, #3]
  82:modules/motor/servo_ctrl/servo_ctrl.c ****     LobotTxBuf[4] = Num;                          // è¦æ§åˆ¶çš„èˆæœºä¸ªæ•°
 175              		.loc 1 82 5 is_stmt 1 view .LVU51
 176              		.loc 1 82 19 is_stmt 0 view .LVU52
 177 0022 1971     		strb	r1, [r3, #4]
  83:modules/motor/servo_ctrl/servo_ctrl.c ****     LobotTxBuf[5] = GET_LOW_BYTE(Time);           // å–å¾—æ—¶é—´çš„ä½å…«ä½
 178              		.loc 1 83 5 is_stmt 1 view .LVU53
 179              		.loc 1 83 19 is_stmt 0 view .LVU54
 180 0024 5A71     		strb	r2, [r3, #5]
  84:modules/motor/servo_ctrl/servo_ctrl.c ****     LobotTxBuf[6] = GET_HIGH_BYTE(Time);          // å–å¾—æ—¶é—´çš„é«˜å…«ä½
 181              		.loc 1 84 5 is_stmt 1 view .LVU55
 182              		.loc 1 84 21 is_stmt 0 view .LVU56
 183 0026 120A     		lsrs	r2, r2, #8
 184              	.LVL7:
 185              		.loc 1 84 19 view .LVU57
 186 0028 9A71     		strb	r2, [r3, #6]
  85:modules/motor/servo_ctrl/servo_ctrl.c **** 
  86:modules/motor/servo_ctrl/servo_ctrl.c ****     for (i = 0; i < Num; i++)
 187              		.loc 1 86 5 is_stmt 1 view .LVU58
 188              		.loc 1 86 12 is_stmt 0 view .LVU59
 189 002a 0023     		movs	r3, #0
  72:modules/motor/servo_ctrl/servo_ctrl.c ****     uint8_t i = 0;
 190              		.loc 1 72 13 view .LVU60
 191 002c 0722     		movs	r2, #7
 192              		.loc 1 86 5 view .LVU61
 193 002e 1AE0     		b	.L11
 194              	.LVL8:
 195              	.L12:
  87:modules/motor/servo_ctrl/servo_ctrl.c ****     {                                                            // å¾ªç¯å¡«å……èˆæœºIDå’Œå¯¹åº”ç›
  88:modules/motor/servo_ctrl/servo_ctrl.c ****         LobotTxBuf[index++] = servos[i].ID;                      // å¡«å……èˆæœºID
 196              		.loc 1 88 9 is_stmt 1 discriminator 3 view .LVU62
 197              		.loc 1 88 37 is_stmt 0 discriminator 3 view .LVU63
ARM GAS  C:\Users\blue\AppData\Local\Temp\ccg1XBVw.s 			page 6


 198 0030 00EB8305 		add	r5, r0, r3, lsl #2
 199              		.loc 1 88 25 discriminator 3 view .LVU64
 200 0034 02F1010E 		add	lr, r2, #1
 201 0038 5FFA8EFE 		uxtb	lr, lr
 202              	.LVL9:
 203              		.loc 1 88 40 discriminator 3 view .LVU65
 204 003c 10F82360 		ldrb	r6, [r0, r3, lsl #2]	@ zero_extendqisi2
 205              		.loc 1 88 29 discriminator 3 view .LVU66
 206 0040 0F4C     		ldr	r4, .L17
 207 0042 A654     		strb	r6, [r4, r2]
  89:modules/motor/servo_ctrl/servo_ctrl.c ****         LobotTxBuf[index++] = GET_LOW_BYTE(servos[i].Position);  // å¡«å……ç›®æ ‡ä½ç½®ä½å…«ä½
 208              		.loc 1 89 9 is_stmt 1 discriminator 3 view .LVU67
 209              		.loc 1 89 25 is_stmt 0 discriminator 3 view .LVU68
 210 0044 02F1020C 		add	ip, r2, #2
 211 0048 5FFA8CFC 		uxtb	ip, ip
 212              	.LVL10:
 213              		.loc 1 89 31 discriminator 3 view .LVU69
 214 004c AE78     		ldrb	r6, [r5, #2]	@ zero_extendqisi2
 215              		.loc 1 89 29 discriminator 3 view .LVU70
 216 004e 04F80E60 		strb	r6, [r4, lr]
  90:modules/motor/servo_ctrl/servo_ctrl.c ****         LobotTxBuf[index++] = GET_HIGH_BYTE(servos[i].Position); // å¡«å……ç›®æ ‡ä½ç½®é«˜å…«ä½
 217              		.loc 1 90 9 is_stmt 1 discriminator 3 view .LVU71
 218              		.loc 1 90 31 is_stmt 0 discriminator 3 view .LVU72
 219 0052 B5F802E0 		ldrh	lr, [r5, #2]
 220              		.loc 1 90 25 discriminator 3 view .LVU73
 221 0056 0332     		adds	r2, r2, #3
 222 0058 D2B2     		uxtb	r2, r2
 223              	.LVL11:
 224              		.loc 1 90 31 discriminator 3 view .LVU74
 225 005a 4FEA1E2E 		lsr	lr, lr, #8
 226              		.loc 1 90 29 discriminator 3 view .LVU75
 227 005e 04F80CE0 		strb	lr, [r4, ip]
  86:modules/motor/servo_ctrl/servo_ctrl.c ****     {                                                            // å¾ªç¯å¡«å……èˆæœºIDå’Œå¯¹åº”ç›
 228              		.loc 1 86 26 is_stmt 1 discriminator 3 view .LVU76
  86:modules/motor/servo_ctrl/servo_ctrl.c ****     {                                                            // å¾ªç¯å¡«å……èˆæœºIDå’Œå¯¹åº”ç›
 229              		.loc 1 86 27 is_stmt 0 discriminator 3 view .LVU77
 230 0062 0133     		adds	r3, r3, #1
 231              	.LVL12:
  86:modules/motor/servo_ctrl/servo_ctrl.c ****     {                                                            // å¾ªç¯å¡«å……èˆæœºIDå’Œå¯¹åº”ç›
 232              		.loc 1 86 27 discriminator 3 view .LVU78
 233 0064 DBB2     		uxtb	r3, r3
 234              	.LVL13:
 235              	.L11:
  86:modules/motor/servo_ctrl/servo_ctrl.c ****     {                                                            // å¾ªç¯å¡«å……èˆæœºIDå’Œå¯¹åº”ç›
 236              		.loc 1 86 17 is_stmt 1 discriminator 1 view .LVU79
  86:modules/motor/servo_ctrl/servo_ctrl.c ****     {                                                            // å¾ªç¯å¡«å……èˆæœºIDå’Œå¯¹åº”ç›
 237              		.loc 1 86 5 is_stmt 0 discriminator 1 view .LVU80
 238 0066 8B42     		cmp	r3, r1
 239 0068 E2D3     		bcc	.L12
  91:modules/motor/servo_ctrl/servo_ctrl.c ****     }
  92:modules/motor/servo_ctrl/servo_ctrl.c **** 
  93:modules/motor/servo_ctrl/servo_ctrl.c ****     if (lobotUsartInstance != NULL)
 240              		.loc 1 93 5 is_stmt 1 view .LVU81
 241              		.loc 1 93 28 is_stmt 0 view .LVU82
 242 006a 064B     		ldr	r3, .L17+4
 243              	.LVL14:
 244              		.loc 1 93 28 view .LVU83
ARM GAS  C:\Users\blue\AppData\Local\Temp\ccg1XBVw.s 			page 7


 245 006c 1868     		ldr	r0, [r3]
 246              	.LVL15:
 247              		.loc 1 93 8 view .LVU84
 248 006e 28B1     		cbz	r0, .L9
  94:modules/motor/servo_ctrl/servo_ctrl.c ****     {
  95:modules/motor/servo_ctrl/servo_ctrl.c ****         USARTSend(lobotUsartInstance, LobotTxBuf, LobotTxBuf[2] + 2, USART_TRANSFER_BLOCKING); // å
 249              		.loc 1 95 9 is_stmt 1 view .LVU85
 250              		.loc 1 95 61 is_stmt 0 view .LVU86
 251 0070 0349     		ldr	r1, .L17
 252              	.LVL16:
 253              		.loc 1 95 61 view .LVU87
 254 0072 8A78     		ldrb	r2, [r1, #2]	@ zero_extendqisi2
 255              	.LVL17:
 256              		.loc 1 95 9 view .LVU88
 257 0074 0123     		movs	r3, #1
 258 0076 0232     		adds	r2, r2, #2
 259 0078 FFF7FEFF 		bl	USARTSend
 260              	.LVL18:
 261              	.L9:
  96:modules/motor/servo_ctrl/servo_ctrl.c ****     }
  97:modules/motor/servo_ctrl/servo_ctrl.c **** }
 262              		.loc 1 97 1 view .LVU89
 263 007c 70BD     		pop	{r4, r5, r6, pc}
 264              	.LVL19:
 265              	.L14:
 266              	.LCFI3:
 267              		.cfi_def_cfa_offset 0
 268              		.cfi_restore 4
 269              		.cfi_restore 5
 270              		.cfi_restore 6
 271              		.cfi_restore 14
 272              		.loc 1 97 1 view .LVU90
 273 007e 7047     		bx	lr
 274              	.L18:
 275              		.align	2
 276              	.L17:
 277 0080 00000000 		.word	.LANCHOR0
 278 0084 00000000 		.word	.LANCHOR1
 279              		.cfi_endproc
 280              	.LFE145:
 282              		.section	.text.moveServos,"ax",%progbits
 283              		.align	1
 284              		.global	moveServos
 285              		.syntax unified
 286              		.thumb
 287              		.thumb_func
 289              	moveServos:
 290              	.LVL20:
 291              	.LFB146:
  98:modules/motor/servo_ctrl/servo_ctrl.c **** 
  99:modules/motor/servo_ctrl/servo_ctrl.c **** /*********************************************************************************
 100:modules/motor/servo_ctrl/servo_ctrl.c **** 
 101:modules/motor/servo_ctrl/servo_ctrl.c **** Function: moveServos
 102:modules/motor/servo_ctrl/servo_ctrl.c **** 
 103:modules/motor/servo_ctrl/servo_ctrl.c **** Descriptionï¼š æ§åˆ¶å¤šä¸ªèˆæœºè½¬åŠ¨
 104:modules/motor/servo_ctrl/servo_ctrl.c **** 
 105:modules/motor/servo_ctrl/servo_ctrl.c **** Parameters: Num:èˆæœºä¸ªæ•°,Time:è½¬åŠ¨æ—¶é—´,...:èˆæœºID,è½¬åŠ¨è§’ï¼ŒèˆæœºID,è½¬åŠ¨è§’åº¦ å¦‚æ­
ARM GAS  C:\Users\blue\AppData\Local\Temp\ccg1XBVw.s 			page 8


 106:modules/motor/servo_ctrl/servo_ctrl.c **** 
 107:modules/motor/servo_ctrl/servo_ctrl.c **** Return: æ— è¿”å›
 108:modules/motor/servo_ctrl/servo_ctrl.c **** 
 109:modules/motor/servo_ctrl/servo_ctrl.c **** Others:
 110:modules/motor/servo_ctrl/servo_ctrl.c **** **********************************************************************************/
 111:modules/motor/servo_ctrl/servo_ctrl.c **** void moveServos(uint8_t Num, uint16_t Time, ...)
 112:modules/motor/servo_ctrl/servo_ctrl.c **** {
 292              		.loc 1 112 1 is_stmt 1 view -0
 293              		.cfi_startproc
 294              		@ args = 4, pretend = 12, frame = 8
 295              		@ frame_needed = 0, uses_anonymous_args = 1
 296              		.loc 1 112 1 is_stmt 0 view .LVU92
 297 0000 0EB4     		push	{r1, r2, r3}
 298              	.LCFI4:
 299              		.cfi_def_cfa_offset 12
 300              		.cfi_offset 1, -12
 301              		.cfi_offset 2, -8
 302              		.cfi_offset 3, -4
 303 0002 30B5     		push	{r4, r5, lr}
 304              	.LCFI5:
 305              		.cfi_def_cfa_offset 24
 306              		.cfi_offset 4, -24
 307              		.cfi_offset 5, -20
 308              		.cfi_offset 14, -16
 309 0004 82B0     		sub	sp, sp, #8
 310              	.LCFI6:
 311              		.cfi_def_cfa_offset 32
 312 0006 05AB     		add	r3, sp, #20
 313 0008 33F8042B 		ldrh	r2, [r3], #4
 113:modules/motor/servo_ctrl/servo_ctrl.c ****     uint8_t index = 7;
 314              		.loc 1 113 5 is_stmt 1 view .LVU93
 315              	.LVL21:
 114:modules/motor/servo_ctrl/servo_ctrl.c ****     uint8_t i = 0;
 316              		.loc 1 114 5 view .LVU94
 115:modules/motor/servo_ctrl/servo_ctrl.c ****     uint16_t temp;
 317              		.loc 1 115 5 view .LVU95
 116:modules/motor/servo_ctrl/servo_ctrl.c ****     va_list arg_ptr;
 318              		.loc 1 116 5 view .LVU96
 117:modules/motor/servo_ctrl/servo_ctrl.c **** 
 118:modules/motor/servo_ctrl/servo_ctrl.c ****     va_start(arg_ptr, Time); // å–å¾—å¯å˜å‚æ•°é¦–åœ°å€
 319              		.loc 1 118 5 view .LVU97
 320 000c 0193     		str	r3, [sp, #4]
 119:modules/motor/servo_ctrl/servo_ctrl.c ****     if (Num < 1 || Num > 32)
 321              		.loc 1 119 5 view .LVU98
 322              		.loc 1 119 17 is_stmt 0 view .LVU99
 323 000e 431E     		subs	r3, r0, #1
 324 0010 DBB2     		uxtb	r3, r3
 325              		.loc 1 119 8 view .LVU100
 326 0012 1F2B     		cmp	r3, #31
 327 0014 37D8     		bhi	.L19
 120:modules/motor/servo_ctrl/servo_ctrl.c ****     {
 121:modules/motor/servo_ctrl/servo_ctrl.c ****         return; // èˆæœºæ•°ä¸èƒ½ä¸ºé›¶å’Œå¤§äº32ï¼Œæ—¶é—´ä¸èƒ½å°äº0
 122:modules/motor/servo_ctrl/servo_ctrl.c ****     }
 123:modules/motor/servo_ctrl/servo_ctrl.c ****     LobotTxBuf[0] = LobotTxBuf[1] = FRAME_HEADER; // å¡«å……å¸§å¤´
 328              		.loc 1 123 5 is_stmt 1 view .LVU101
 329              		.loc 1 123 35 is_stmt 0 view .LVU102
 330 0016 1E4B     		ldr	r3, .L26
ARM GAS  C:\Users\blue\AppData\Local\Temp\ccg1XBVw.s 			page 9


 331 0018 5521     		movs	r1, #85
 332 001a 5970     		strb	r1, [r3, #1]
 333              		.loc 1 123 19 view .LVU103
 334 001c 1970     		strb	r1, [r3]
 124:modules/motor/servo_ctrl/servo_ctrl.c ****     LobotTxBuf[2] = Num * 3 + 5;                  // æ•°æ®é•¿åº¦ = è¦æ§åˆ¶èˆæœºæ•° * 3 + 5
 335              		.loc 1 124 5 is_stmt 1 view .LVU104
 336              		.loc 1 124 29 is_stmt 0 view .LVU105
 337 001e 00EB4001 		add	r1, r0, r0, lsl #1
 338 0022 0531     		adds	r1, r1, #5
 339              		.loc 1 124 19 view .LVU106
 340 0024 9970     		strb	r1, [r3, #2]
 125:modules/motor/servo_ctrl/servo_ctrl.c ****     LobotTxBuf[3] = CMD_SERVO_MOVE;               // èˆæœºç§»åŠ¨æŒ‡ä»¤
 341              		.loc 1 125 5 is_stmt 1 view .LVU107
 342              		.loc 1 125 19 is_stmt 0 view .LVU108
 343 0026 0321     		movs	r1, #3
 344 0028 D970     		strb	r1, [r3, #3]
 126:modules/motor/servo_ctrl/servo_ctrl.c ****     LobotTxBuf[4] = Num;                          // è¦æ§åˆ¶èˆæœºæ•°
 345              		.loc 1 126 5 is_stmt 1 view .LVU109
 346              		.loc 1 126 19 is_stmt 0 view .LVU110
 347 002a 1871     		strb	r0, [r3, #4]
 127:modules/motor/servo_ctrl/servo_ctrl.c ****     LobotTxBuf[5] = GET_LOW_BYTE(Time);           // å–å¾—æ—¶é—´çš„ä½å…«ä½
 348              		.loc 1 127 5 is_stmt 1 view .LVU111
 349              		.loc 1 127 19 is_stmt 0 view .LVU112
 350 002c 5A71     		strb	r2, [r3, #5]
 128:modules/motor/servo_ctrl/servo_ctrl.c ****     LobotTxBuf[6] = GET_HIGH_BYTE(Time);          // å–å¾—æ—¶é—´çš„é«˜å…«ä½
 351              		.loc 1 128 5 is_stmt 1 view .LVU113
 352              		.loc 1 128 21 is_stmt 0 view .LVU114
 353 002e 120A     		lsrs	r2, r2, #8
 354              		.loc 1 128 19 view .LVU115
 355 0030 9A71     		strb	r2, [r3, #6]
 129:modules/motor/servo_ctrl/servo_ctrl.c **** 
 130:modules/motor/servo_ctrl/servo_ctrl.c ****     for (i = 0; i < Num; i++)
 356              		.loc 1 130 5 is_stmt 1 view .LVU116
 357              		.loc 1 130 12 is_stmt 0 view .LVU117
 358 0032 4FF0000E 		mov	lr, #0
 113:modules/motor/servo_ctrl/servo_ctrl.c ****     uint8_t i = 0;
 359              		.loc 1 113 13 view .LVU118
 360 0036 0723     		movs	r3, #7
 361              		.loc 1 130 5 view .LVU119
 362 0038 1AE0     		b	.L22
 363              	.LVL22:
 364              	.L23:
 131:modules/motor/servo_ctrl/servo_ctrl.c ****     {                                // ä»å¯å˜å‚æ•°ä¸­å–å¾—å¹¶å¾ªç¯å¡«å……èˆæœºIDå’Œå¯¹åº”ç›®
 132:modules/motor/servo_ctrl/servo_ctrl.c ****         temp = va_arg(arg_ptr, int); // å¯å˜å‚æ•°ä¸­å–å¾—èˆæœºID
 365              		.loc 1 132 9 is_stmt 1 view .LVU120
 366              		.loc 1 132 16 is_stmt 0 view .LVU121
 367 003a 0199     		ldr	r1, [sp, #4]
 368 003c 0A1D     		adds	r2, r1, #4
 369 003e 0192     		str	r2, [sp, #4]
 133:modules/motor/servo_ctrl/servo_ctrl.c ****         LobotTxBuf[index++] = GET_LOW_BYTE(((uint16_t)temp));
 370              		.loc 1 133 9 is_stmt 1 view .LVU122
 371              		.loc 1 133 25 is_stmt 0 view .LVU123
 372 0040 03F1010C 		add	ip, r3, #1
 373 0044 5FFA8CFC 		uxtb	ip, ip
 374              	.LVL23:
 375              		.loc 1 133 31 view .LVU124
 376 0048 0D78     		ldrb	r5, [r1]	@ zero_extendqisi2
ARM GAS  C:\Users\blue\AppData\Local\Temp\ccg1XBVw.s 			page 10


 377              		.loc 1 133 29 view .LVU125
 378 004a 114C     		ldr	r4, .L26
 379 004c E554     		strb	r5, [r4, r3]
 134:modules/motor/servo_ctrl/servo_ctrl.c ****         temp = va_arg(arg_ptr, int);                          // å¯å˜å‚æ•°ä¸­å–å¾—å¯¹åº”ç›®æ ‡ä
 380              		.loc 1 134 9 is_stmt 1 view .LVU126
 381              		.loc 1 134 16 is_stmt 0 view .LVU127
 382 004e 01F10802 		add	r2, r1, #8
 383 0052 0192     		str	r2, [sp, #4]
 384 0054 4A68     		ldr	r2, [r1, #4]
 385              	.LVL24:
 135:modules/motor/servo_ctrl/servo_ctrl.c ****         LobotTxBuf[index++] = GET_LOW_BYTE(((uint16_t)temp)); // å¡«å……ç›®æ ‡ä½ç½®ä½å…«ä½
 386              		.loc 1 135 9 is_stmt 1 view .LVU128
 387              		.loc 1 135 25 is_stmt 0 view .LVU129
 388 0056 991C     		adds	r1, r3, #2
 389 0058 C9B2     		uxtb	r1, r1
 390              	.LVL25:
 391              		.loc 1 135 29 view .LVU130
 392 005a 04F80C20 		strb	r2, [r4, ip]
 136:modules/motor/servo_ctrl/servo_ctrl.c ****         LobotTxBuf[index++] = GET_HIGH_BYTE(temp);            // å¡«å……ç›®æ ‡ä½ç½®é«˜å…«ä½
 393              		.loc 1 136 9 is_stmt 1 view .LVU131
 394              		.loc 1 136 25 is_stmt 0 view .LVU132
 395 005e 0333     		adds	r3, r3, #3
 396 0060 DBB2     		uxtb	r3, r3
 397              	.LVL26:
 398              		.loc 1 136 31 view .LVU133
 399 0062 C2F30722 		ubfx	r2, r2, #8, #8
 400              	.LVL27:
 401              		.loc 1 136 29 view .LVU134
 402 0066 6254     		strb	r2, [r4, r1]
 130:modules/motor/servo_ctrl/servo_ctrl.c ****     {                                // ä»å¯å˜å‚æ•°ä¸­å–å¾—å¹¶å¾ªç¯å¡«å……èˆæœºIDå’Œå¯¹åº”ç›®
 403              		.loc 1 130 26 is_stmt 1 view .LVU135
 130:modules/motor/servo_ctrl/servo_ctrl.c ****     {                                // ä»å¯å˜å‚æ•°ä¸­å–å¾—å¹¶å¾ªç¯å¡«å……èˆæœºIDå’Œå¯¹åº”ç›®
 404              		.loc 1 130 27 is_stmt 0 view .LVU136
 405 0068 0EF10102 		add	r2, lr, #1
 406 006c 5FFA82FE 		uxtb	lr, r2
 407              	.LVL28:
 408              	.L22:
 130:modules/motor/servo_ctrl/servo_ctrl.c ****     {                                // ä»å¯å˜å‚æ•°ä¸­å–å¾—å¹¶å¾ªç¯å¡«å……èˆæœºIDå’Œå¯¹åº”ç›®
 409              		.loc 1 130 17 is_stmt 1 discriminator 1 view .LVU137
 130:modules/motor/servo_ctrl/servo_ctrl.c ****     {                                // ä»å¯å˜å‚æ•°ä¸­å–å¾—å¹¶å¾ªç¯å¡«å……èˆæœºIDå’Œå¯¹åº”ç›®
 410              		.loc 1 130 5 is_stmt 0 discriminator 1 view .LVU138
 411 0070 8645     		cmp	lr, r0
 412 0072 E2D3     		bcc	.L23
 137:modules/motor/servo_ctrl/servo_ctrl.c ****     }
 138:modules/motor/servo_ctrl/servo_ctrl.c **** 
 139:modules/motor/servo_ctrl/servo_ctrl.c ****     va_end(arg_ptr); // ç½®ç©ºarg_ptr
 413              		.loc 1 139 5 is_stmt 1 view .LVU139
 140:modules/motor/servo_ctrl/servo_ctrl.c **** 
 141:modules/motor/servo_ctrl/servo_ctrl.c ****     if (lobotUsartInstance != NULL)
 414              		.loc 1 141 5 view .LVU140
 415              		.loc 1 141 28 is_stmt 0 view .LVU141
 416 0074 074B     		ldr	r3, .L26+4
 417              	.LVL29:
 418              		.loc 1 141 28 view .LVU142
 419 0076 1868     		ldr	r0, [r3]
 420              	.LVL30:
 421              		.loc 1 141 8 view .LVU143
ARM GAS  C:\Users\blue\AppData\Local\Temp\ccg1XBVw.s 			page 11


 422 0078 28B1     		cbz	r0, .L19
 142:modules/motor/servo_ctrl/servo_ctrl.c ****     {
 143:modules/motor/servo_ctrl/servo_ctrl.c ****         USARTSend(lobotUsartInstance, LobotTxBuf, LobotTxBuf[2] + 2, USART_TRANSFER_BLOCKING); // å
 423              		.loc 1 143 9 is_stmt 1 view .LVU144
 424              		.loc 1 143 61 is_stmt 0 view .LVU145
 425 007a 0549     		ldr	r1, .L26
 426 007c 8A78     		ldrb	r2, [r1, #2]	@ zero_extendqisi2
 427              		.loc 1 143 9 view .LVU146
 428 007e 0123     		movs	r3, #1
 429 0080 0232     		adds	r2, r2, #2
 430 0082 FFF7FEFF 		bl	USARTSend
 431              	.LVL31:
 432              	.L19:
 144:modules/motor/servo_ctrl/servo_ctrl.c ****     }
 145:modules/motor/servo_ctrl/servo_ctrl.c **** }
 433              		.loc 1 145 1 view .LVU147
 434 0086 02B0     		add	sp, sp, #8
 435              	.LCFI7:
 436              		.cfi_def_cfa_offset 24
 437              		@ sp needed
 438 0088 BDE83040 		pop	{r4, r5, lr}
 439              	.LCFI8:
 440              		.cfi_restore 14
 441              		.cfi_restore 5
 442              		.cfi_restore 4
 443              		.cfi_def_cfa_offset 12
 444 008c 03B0     		add	sp, sp, #12
 445              	.LCFI9:
 446              		.cfi_restore 3
 447              		.cfi_restore 2
 448              		.cfi_restore 1
 449              		.cfi_def_cfa_offset 0
 450 008e 7047     		bx	lr
 451              	.L27:
 452              		.align	2
 453              	.L26:
 454 0090 00000000 		.word	.LANCHOR0
 455 0094 00000000 		.word	.LANCHOR1
 456              		.cfi_endproc
 457              	.LFE146:
 459              		.section	.text.runActionGroup,"ax",%progbits
 460              		.align	1
 461              		.global	runActionGroup
 462              		.syntax unified
 463              		.thumb
 464              		.thumb_func
 466              	runActionGroup:
 467              	.LVL32:
 468              	.LFB147:
 146:modules/motor/servo_ctrl/servo_ctrl.c **** 
 147:modules/motor/servo_ctrl/servo_ctrl.c **** /*********************************************************************************
 148:modules/motor/servo_ctrl/servo_ctrl.c **** 
 149:modules/motor/servo_ctrl/servo_ctrl.c **** Function: runActionGroup
 150:modules/motor/servo_ctrl/servo_ctrl.c **** 
 151:modules/motor/servo_ctrl/servo_ctrl.c **** Descriptionï¼š è¿è¡ŒæŒ‡å®šåŠ¨ä½œç»„
 152:modules/motor/servo_ctrl/servo_ctrl.c **** 
 153:modules/motor/servo_ctrl/servo_ctrl.c **** Parameters: NumOfAction:åŠ¨ä½œç»„åºå·, Times:æ‰§è¡Œæ¬¡æ•°
ARM GAS  C:\Users\blue\AppData\Local\Temp\ccg1XBVw.s 			page 12


 154:modules/motor/servo_ctrl/servo_ctrl.c **** 
 155:modules/motor/servo_ctrl/servo_ctrl.c **** Return: æ— è¿”å›
 156:modules/motor/servo_ctrl/servo_ctrl.c **** 
 157:modules/motor/servo_ctrl/servo_ctrl.c **** Others: Times = 0 æ—¶æ— é™å¾ªç¯
 158:modules/motor/servo_ctrl/servo_ctrl.c **** **********************************************************************************/
 159:modules/motor/servo_ctrl/servo_ctrl.c **** void runActionGroup(uint8_t numOfAction, uint16_t Times)
 160:modules/motor/servo_ctrl/servo_ctrl.c **** {
 469              		.loc 1 160 1 is_stmt 1 view -0
 470              		.cfi_startproc
 471              		@ args = 0, pretend = 0, frame = 0
 472              		@ frame_needed = 0, uses_anonymous_args = 0
 473              		.loc 1 160 1 is_stmt 0 view .LVU149
 474 0000 08B5     		push	{r3, lr}
 475              	.LCFI10:
 476              		.cfi_def_cfa_offset 8
 477              		.cfi_offset 3, -8
 478              		.cfi_offset 14, -4
 161:modules/motor/servo_ctrl/servo_ctrl.c ****     LobotTxBuf[0] = LobotTxBuf[1] = FRAME_HEADER; // å¡«å……å¸§å¤´
 479              		.loc 1 161 5 is_stmt 1 view .LVU150
 480              		.loc 1 161 35 is_stmt 0 view .LVU151
 481 0002 0A4B     		ldr	r3, .L31
 482 0004 5522     		movs	r2, #85
 483 0006 5A70     		strb	r2, [r3, #1]
 484              		.loc 1 161 19 view .LVU152
 485 0008 1A70     		strb	r2, [r3]
 162:modules/motor/servo_ctrl/servo_ctrl.c ****     LobotTxBuf[2] = 5;                            // æ•°æ®é•¿åº¦ï¼Œæ•°æ®å¸§é™¤å¸§å¤´éƒ¨åˆ†æ•°æ®å
 486              		.loc 1 162 5 is_stmt 1 view .LVU153
 487              		.loc 1 162 19 is_stmt 0 view .LVU154
 488 000a 0522     		movs	r2, #5
 489 000c 9A70     		strb	r2, [r3, #2]
 163:modules/motor/servo_ctrl/servo_ctrl.c ****     LobotTxBuf[3] = CMD_ACTION_GROUP_RUN;         // å¡«å……è¿è¡ŒåŠ¨ä½œç»„å‘½ä»¤
 490              		.loc 1 163 5 is_stmt 1 view .LVU155
 491              		.loc 1 163 19 is_stmt 0 view .LVU156
 492 000e 0622     		movs	r2, #6
 493 0010 DA70     		strb	r2, [r3, #3]
 164:modules/motor/servo_ctrl/servo_ctrl.c ****     LobotTxBuf[4] = numOfAction;                  // å¡«å……è¦è¿è¡Œçš„åŠ¨ä½œç»„å·
 494              		.loc 1 164 5 is_stmt 1 view .LVU157
 495              		.loc 1 164 19 is_stmt 0 view .LVU158
 496 0012 1871     		strb	r0, [r3, #4]
 165:modules/motor/servo_ctrl/servo_ctrl.c ****     LobotTxBuf[5] = GET_LOW_BYTE(Times);          // å–å¾—è¦è¿è¡Œæ¬¡æ•°çš„ä½å…«ä½
 497              		.loc 1 165 5 is_stmt 1 view .LVU159
 498              		.loc 1 165 19 is_stmt 0 view .LVU160
 499 0014 5971     		strb	r1, [r3, #5]
 166:modules/motor/servo_ctrl/servo_ctrl.c ****     LobotTxBuf[6] = GET_HIGH_BYTE(Times);         // å–å¾—è¦è¿è¡Œæ¬¡æ•°çš„é«˜å…«ä½
 500              		.loc 1 166 5 is_stmt 1 view .LVU161
 501              		.loc 1 166 21 is_stmt 0 view .LVU162
 502 0016 090A     		lsrs	r1, r1, #8
 503              	.LVL33:
 504              		.loc 1 166 19 view .LVU163
 505 0018 9971     		strb	r1, [r3, #6]
 167:modules/motor/servo_ctrl/servo_ctrl.c **** 
 168:modules/motor/servo_ctrl/servo_ctrl.c ****     if (lobotUsartInstance != NULL)
 506              		.loc 1 168 5 is_stmt 1 view .LVU164
 507              		.loc 1 168 28 is_stmt 0 view .LVU165
 508 001a 054B     		ldr	r3, .L31+4
 509 001c 1868     		ldr	r0, [r3]
 510              	.LVL34:
ARM GAS  C:\Users\blue\AppData\Local\Temp\ccg1XBVw.s 			page 13


 511              		.loc 1 168 8 view .LVU166
 512 001e 20B1     		cbz	r0, .L28
 169:modules/motor/servo_ctrl/servo_ctrl.c ****     {
 170:modules/motor/servo_ctrl/servo_ctrl.c ****         USARTSend(lobotUsartInstance, LobotTxBuf, 7, USART_TRANSFER_BLOCKING); // å‘é€
 513              		.loc 1 170 9 is_stmt 1 view .LVU167
 514 0020 0123     		movs	r3, #1
 515 0022 0722     		movs	r2, #7
 516 0024 0149     		ldr	r1, .L31
 517              		.loc 1 170 9 is_stmt 0 view .LVU168
 518 0026 FFF7FEFF 		bl	USARTSend
 519              	.LVL35:
 520              	.L28:
 171:modules/motor/servo_ctrl/servo_ctrl.c ****     }
 172:modules/motor/servo_ctrl/servo_ctrl.c **** }
 521              		.loc 1 172 1 view .LVU169
 522 002a 08BD     		pop	{r3, pc}
 523              	.L32:
 524              		.align	2
 525              	.L31:
 526 002c 00000000 		.word	.LANCHOR0
 527 0030 00000000 		.word	.LANCHOR1
 528              		.cfi_endproc
 529              	.LFE147:
 531              		.section	.text.stopActionGroup,"ax",%progbits
 532              		.align	1
 533              		.global	stopActionGroup
 534              		.syntax unified
 535              		.thumb
 536              		.thumb_func
 538              	stopActionGroup:
 539              	.LFB148:
 173:modules/motor/servo_ctrl/servo_ctrl.c **** 
 174:modules/motor/servo_ctrl/servo_ctrl.c **** /*********************************************************************************
 175:modules/motor/servo_ctrl/servo_ctrl.c **** 
 176:modules/motor/servo_ctrl/servo_ctrl.c **** Function: stopActionGroup
 177:modules/motor/servo_ctrl/servo_ctrl.c **** 
 178:modules/motor/servo_ctrl/servo_ctrl.c **** Descriptionï¼š åœæ­¢åŠ¨ä½œç»„è¿è¡Œ
 179:modules/motor/servo_ctrl/servo_ctrl.c **** 
 180:modules/motor/servo_ctrl/servo_ctrl.c **** Parameters: Speed: ç›®æ ‡é€Ÿåº¦
 181:modules/motor/servo_ctrl/servo_ctrl.c **** 
 182:modules/motor/servo_ctrl/servo_ctrl.c **** Return: æ— è¿”å›
 183:modules/motor/servo_ctrl/servo_ctrl.c **** 
 184:modules/motor/servo_ctrl/servo_ctrl.c **** Others:
 185:modules/motor/servo_ctrl/servo_ctrl.c **** **********************************************************************************/
 186:modules/motor/servo_ctrl/servo_ctrl.c **** void stopActionGroup(void)
 187:modules/motor/servo_ctrl/servo_ctrl.c **** {
 540              		.loc 1 187 1 is_stmt 1 view -0
 541              		.cfi_startproc
 542              		@ args = 0, pretend = 0, frame = 0
 543              		@ frame_needed = 0, uses_anonymous_args = 0
 544 0000 08B5     		push	{r3, lr}
 545              	.LCFI11:
 546              		.cfi_def_cfa_offset 8
 547              		.cfi_offset 3, -8
 548              		.cfi_offset 14, -4
 188:modules/motor/servo_ctrl/servo_ctrl.c ****     LobotTxBuf[0] = FRAME_HEADER; // å¡«å……å¸§å¤´
 549              		.loc 1 188 5 view .LVU171
ARM GAS  C:\Users\blue\AppData\Local\Temp\ccg1XBVw.s 			page 14


 550              		.loc 1 188 19 is_stmt 0 view .LVU172
 551 0002 084B     		ldr	r3, .L36
 552 0004 5522     		movs	r2, #85
 553 0006 1A70     		strb	r2, [r3]
 189:modules/motor/servo_ctrl/servo_ctrl.c ****     LobotTxBuf[1] = FRAME_HEADER;
 554              		.loc 1 189 5 is_stmt 1 view .LVU173
 555              		.loc 1 189 19 is_stmt 0 view .LVU174
 556 0008 5A70     		strb	r2, [r3, #1]
 190:modules/motor/servo_ctrl/servo_ctrl.c ****     LobotTxBuf[2] = 2;                     // æ•°æ®é•¿åº¦ï¼Œæ•°æ®å¸§é™¤å¸§å¤´éƒ¨åˆ†æ•°æ®å­—èŠ‚æ•
 557              		.loc 1 190 5 is_stmt 1 view .LVU175
 558              		.loc 1 190 19 is_stmt 0 view .LVU176
 559 000a 0222     		movs	r2, #2
 560 000c 9A70     		strb	r2, [r3, #2]
 191:modules/motor/servo_ctrl/servo_ctrl.c ****     LobotTxBuf[3] = CMD_ACTION_GROUP_STOP; // å¡«å……åœæ­¢è¿è¡ŒåŠ¨ä½œç»„å‘½ä»¤
 561              		.loc 1 191 5 is_stmt 1 view .LVU177
 562              		.loc 1 191 19 is_stmt 0 view .LVU178
 563 000e 0722     		movs	r2, #7
 564 0010 DA70     		strb	r2, [r3, #3]
 192:modules/motor/servo_ctrl/servo_ctrl.c **** 
 193:modules/motor/servo_ctrl/servo_ctrl.c ****     if (lobotUsartInstance != NULL)
 565              		.loc 1 193 5 is_stmt 1 view .LVU179
 566              		.loc 1 193 28 is_stmt 0 view .LVU180
 567 0012 054B     		ldr	r3, .L36+4
 568 0014 1868     		ldr	r0, [r3]
 569              		.loc 1 193 8 view .LVU181
 570 0016 20B1     		cbz	r0, .L33
 194:modules/motor/servo_ctrl/servo_ctrl.c ****     {
 195:modules/motor/servo_ctrl/servo_ctrl.c ****         USARTSend(lobotUsartInstance, LobotTxBuf, 4, USART_TRANSFER_BLOCKING); // å‘é€
 571              		.loc 1 195 9 is_stmt 1 view .LVU182
 572 0018 0123     		movs	r3, #1
 573 001a 0422     		movs	r2, #4
 574 001c 0149     		ldr	r1, .L36
 575 001e FFF7FEFF 		bl	USARTSend
 576              	.LVL36:
 577              	.L33:
 196:modules/motor/servo_ctrl/servo_ctrl.c ****     }
 197:modules/motor/servo_ctrl/servo_ctrl.c **** }
 578              		.loc 1 197 1 is_stmt 0 view .LVU183
 579 0022 08BD     		pop	{r3, pc}
 580              	.L37:
 581              		.align	2
 582              	.L36:
 583 0024 00000000 		.word	.LANCHOR0
 584 0028 00000000 		.word	.LANCHOR1
 585              		.cfi_endproc
 586              	.LFE148:
 588              		.section	.text.setActionGroupSpeed,"ax",%progbits
 589              		.align	1
 590              		.global	setActionGroupSpeed
 591              		.syntax unified
 592              		.thumb
 593              		.thumb_func
 595              	setActionGroupSpeed:
 596              	.LVL37:
 597              	.LFB149:
 198:modules/motor/servo_ctrl/servo_ctrl.c **** 
 199:modules/motor/servo_ctrl/servo_ctrl.c **** /*********************************************************************************
ARM GAS  C:\Users\blue\AppData\Local\Temp\ccg1XBVw.s 			page 15


 200:modules/motor/servo_ctrl/servo_ctrl.c **** 
 201:modules/motor/servo_ctrl/servo_ctrl.c **** Function: setActionGroupSpeed
 202:modules/motor/servo_ctrl/servo_ctrl.c **** 
 203:modules/motor/servo_ctrl/servo_ctrl.c **** Descriptionï¼š è®¾å®šæŒ‡å®šåŠ¨ä½œç»„çš„è¿è¡Œé€Ÿåº¦
 204:modules/motor/servo_ctrl/servo_ctrl.c **** 
 205:modules/motor/servo_ctrl/servo_ctrl.c **** Parameters: NumOfAction: åŠ¨ä½œç»„åºå· , Speed:ç›®æ ‡é€Ÿåº¦
 206:modules/motor/servo_ctrl/servo_ctrl.c **** 
 207:modules/motor/servo_ctrl/servo_ctrl.c **** Return: æ— è¿”å›
 208:modules/motor/servo_ctrl/servo_ctrl.c **** 
 209:modules/motor/servo_ctrl/servo_ctrl.c **** Others:
 210:modules/motor/servo_ctrl/servo_ctrl.c **** **********************************************************************************/
 211:modules/motor/servo_ctrl/servo_ctrl.c **** void setActionGroupSpeed(uint8_t numOfAction, uint16_t Speed)
 212:modules/motor/servo_ctrl/servo_ctrl.c **** {
 598              		.loc 1 212 1 is_stmt 1 view -0
 599              		.cfi_startproc
 600              		@ args = 0, pretend = 0, frame = 0
 601              		@ frame_needed = 0, uses_anonymous_args = 0
 602              		.loc 1 212 1 is_stmt 0 view .LVU185
 603 0000 08B5     		push	{r3, lr}
 604              	.LCFI12:
 605              		.cfi_def_cfa_offset 8
 606              		.cfi_offset 3, -8
 607              		.cfi_offset 14, -4
 213:modules/motor/servo_ctrl/servo_ctrl.c ****     LobotTxBuf[0] = LobotTxBuf[1] = FRAME_HEADER; // å¡«å……å¸§å¤´
 608              		.loc 1 213 5 is_stmt 1 view .LVU186
 609              		.loc 1 213 35 is_stmt 0 view .LVU187
 610 0002 0A4B     		ldr	r3, .L41
 611 0004 5522     		movs	r2, #85
 612 0006 5A70     		strb	r2, [r3, #1]
 613              		.loc 1 213 19 view .LVU188
 614 0008 1A70     		strb	r2, [r3]
 214:modules/motor/servo_ctrl/servo_ctrl.c ****     LobotTxBuf[2] = 5;                            // æ•°æ®é•¿åº¦ï¼Œæ•°æ®å¸§é™¤å¸§å¤´éƒ¨åˆ†æ•°æ®å
 615              		.loc 1 214 5 is_stmt 1 view .LVU189
 616              		.loc 1 214 19 is_stmt 0 view .LVU190
 617 000a 0522     		movs	r2, #5
 618 000c 9A70     		strb	r2, [r3, #2]
 215:modules/motor/servo_ctrl/servo_ctrl.c ****     LobotTxBuf[3] = CMD_ACTION_GROUP_SPEED;       // å¡«å……è®¾å®šåŠ¨ä½œç»„é€Ÿåº¦å‘½ä»¤
 619              		.loc 1 215 5 is_stmt 1 view .LVU191
 620              		.loc 1 215 19 is_stmt 0 view .LVU192
 621 000e 0B22     		movs	r2, #11
 622 0010 DA70     		strb	r2, [r3, #3]
 216:modules/motor/servo_ctrl/servo_ctrl.c ****     LobotTxBuf[4] = numOfAction;                  // å¡«å……è¦è®¾å®šçš„åŠ¨ä½œç»„å·
 623              		.loc 1 216 5 is_stmt 1 view .LVU193
 624              		.loc 1 216 19 is_stmt 0 view .LVU194
 625 0012 1871     		strb	r0, [r3, #4]
 217:modules/motor/servo_ctrl/servo_ctrl.c ****     LobotTxBuf[5] = GET_LOW_BYTE(Speed);          // è·å¾—ç›®æ ‡é€Ÿåº¦çš„ä½å…«ä½
 626              		.loc 1 217 5 is_stmt 1 view .LVU195
 627              		.loc 1 217 19 is_stmt 0 view .LVU196
 628 0014 5971     		strb	r1, [r3, #5]
 218:modules/motor/servo_ctrl/servo_ctrl.c ****     LobotTxBuf[6] = GET_HIGH_BYTE(Speed);         // è·å¾—ç›®æ ‡é€Ÿåº¦çš„é«˜å…«ä½
 629              		.loc 1 218 5 is_stmt 1 view .LVU197
 630              		.loc 1 218 21 is_stmt 0 view .LVU198
 631 0016 090A     		lsrs	r1, r1, #8
 632              	.LVL38:
 633              		.loc 1 218 19 view .LVU199
 634 0018 9971     		strb	r1, [r3, #6]
 219:modules/motor/servo_ctrl/servo_ctrl.c **** 
ARM GAS  C:\Users\blue\AppData\Local\Temp\ccg1XBVw.s 			page 16


 220:modules/motor/servo_ctrl/servo_ctrl.c ****     if (lobotUsartInstance != NULL)
 635              		.loc 1 220 5 is_stmt 1 view .LVU200
 636              		.loc 1 220 28 is_stmt 0 view .LVU201
 637 001a 054B     		ldr	r3, .L41+4
 638 001c 1868     		ldr	r0, [r3]
 639              	.LVL39:
 640              		.loc 1 220 8 view .LVU202
 641 001e 20B1     		cbz	r0, .L38
 221:modules/motor/servo_ctrl/servo_ctrl.c ****     {
 222:modules/motor/servo_ctrl/servo_ctrl.c ****         USARTSend(lobotUsartInstance, LobotTxBuf, 7, USART_TRANSFER_BLOCKING); // å‘é€
 642              		.loc 1 222 9 is_stmt 1 view .LVU203
 643 0020 0123     		movs	r3, #1
 644 0022 0722     		movs	r2, #7
 645 0024 0149     		ldr	r1, .L41
 646              		.loc 1 222 9 is_stmt 0 view .LVU204
 647 0026 FFF7FEFF 		bl	USARTSend
 648              	.LVL40:
 649              	.L38:
 223:modules/motor/servo_ctrl/servo_ctrl.c ****     }
 224:modules/motor/servo_ctrl/servo_ctrl.c **** }
 650              		.loc 1 224 1 view .LVU205
 651 002a 08BD     		pop	{r3, pc}
 652              	.L42:
 653              		.align	2
 654              	.L41:
 655 002c 00000000 		.word	.LANCHOR0
 656 0030 00000000 		.word	.LANCHOR1
 657              		.cfi_endproc
 658              	.LFE149:
 660              		.section	.text.setAllActionGroupSpeed,"ax",%progbits
 661              		.align	1
 662              		.global	setAllActionGroupSpeed
 663              		.syntax unified
 664              		.thumb
 665              		.thumb_func
 667              	setAllActionGroupSpeed:
 668              	.LVL41:
 669              	.LFB150:
 225:modules/motor/servo_ctrl/servo_ctrl.c **** 
 226:modules/motor/servo_ctrl/servo_ctrl.c **** /*********************************************************************************
 227:modules/motor/servo_ctrl/servo_ctrl.c **** 
 228:modules/motor/servo_ctrl/servo_ctrl.c **** Function: setAllActionGroupSpeed
 229:modules/motor/servo_ctrl/servo_ctrl.c **** 
 230:modules/motor/servo_ctrl/servo_ctrl.c **** Descriptionï¼š è®¾ç½®æ‰€æœ‰åŠ¨ä½œç»„çš„è¿è¡Œé€Ÿåº¦
 231:modules/motor/servo_ctrl/servo_ctrl.c **** 
 232:modules/motor/servo_ctrl/servo_ctrl.c **** Parameters: Speed: ç›®æ ‡é€Ÿåº¦
 233:modules/motor/servo_ctrl/servo_ctrl.c **** 
 234:modules/motor/servo_ctrl/servo_ctrl.c **** Return: æ— è¿”å›
 235:modules/motor/servo_ctrl/servo_ctrl.c **** 
 236:modules/motor/servo_ctrl/servo_ctrl.c **** Others:
 237:modules/motor/servo_ctrl/servo_ctrl.c **** **********************************************************************************/
 238:modules/motor/servo_ctrl/servo_ctrl.c **** void setAllActionGroupSpeed(uint16_t Speed)
 239:modules/motor/servo_ctrl/servo_ctrl.c **** {
 670              		.loc 1 239 1 is_stmt 1 view -0
 671              		.cfi_startproc
 672              		@ args = 0, pretend = 0, frame = 0
 673              		@ frame_needed = 0, uses_anonymous_args = 0
ARM GAS  C:\Users\blue\AppData\Local\Temp\ccg1XBVw.s 			page 17


 674              		.loc 1 239 1 is_stmt 0 view .LVU207
 675 0000 08B5     		push	{r3, lr}
 676              	.LCFI13:
 677              		.cfi_def_cfa_offset 8
 678              		.cfi_offset 3, -8
 679              		.cfi_offset 14, -4
 680 0002 0146     		mov	r1, r0
 240:modules/motor/servo_ctrl/servo_ctrl.c ****     setActionGroupSpeed(0xFF, Speed); // è°ƒç”¨åŠ¨ä½œç»„é€Ÿåº¦è®¾å®šï¼Œç»„å·ä¸º0xFFæ—¶è®¾ç½®æ‰€æœ‰
 681              		.loc 1 240 5 is_stmt 1 view .LVU208
 682 0004 FF20     		movs	r0, #255
 683              	.LVL42:
 684              		.loc 1 240 5 is_stmt 0 view .LVU209
 685 0006 FFF7FEFF 		bl	setActionGroupSpeed
 686              	.LVL43:
 241:modules/motor/servo_ctrl/servo_ctrl.c **** }
 687              		.loc 1 241 1 view .LVU210
 688 000a 08BD     		pop	{r3, pc}
 689              		.cfi_endproc
 690              	.LFE150:
 692              		.section	.text.getBatteryVoltage,"ax",%progbits
 693              		.align	1
 694              		.global	getBatteryVoltage
 695              		.syntax unified
 696              		.thumb
 697              		.thumb_func
 699              	getBatteryVoltage:
 700              	.LFB151:
 242:modules/motor/servo_ctrl/servo_ctrl.c **** 
 243:modules/motor/servo_ctrl/servo_ctrl.c **** /*********************************************************************************
 244:modules/motor/servo_ctrl/servo_ctrl.c **** 
 245:modules/motor/servo_ctrl/servo_ctrl.c **** Function: getBatteryVoltage
 246:modules/motor/servo_ctrl/servo_ctrl.c **** 
 247:modules/motor/servo_ctrl/servo_ctrl.c **** Descriptionï¼š å‘é€è·å–ç”µæ± ç”µå‹å‘½ä»¤
 248:modules/motor/servo_ctrl/servo_ctrl.c **** 
 249:modules/motor/servo_ctrl/servo_ctrl.c **** Parameters: Timeoutï¼šé‡è¯•æ¬¡æ•°
 250:modules/motor/servo_ctrl/servo_ctrl.c **** 
 251:modules/motor/servo_ctrl/servo_ctrl.c **** Return: æ— è¿”å›
 252:modules/motor/servo_ctrl/servo_ctrl.c **** 
 253:modules/motor/servo_ctrl/servo_ctrl.c **** Others:
 254:modules/motor/servo_ctrl/servo_ctrl.c **** **********************************************************************************/
 255:modules/motor/servo_ctrl/servo_ctrl.c **** void getBatteryVoltage(void)
 256:modules/motor/servo_ctrl/servo_ctrl.c **** {
 701              		.loc 1 256 1 is_stmt 1 view -0
 702              		.cfi_startproc
 703              		@ args = 0, pretend = 0, frame = 0
 704              		@ frame_needed = 0, uses_anonymous_args = 0
 705 0000 08B5     		push	{r3, lr}
 706              	.LCFI14:
 707              		.cfi_def_cfa_offset 8
 708              		.cfi_offset 3, -8
 709              		.cfi_offset 14, -4
 257:modules/motor/servo_ctrl/servo_ctrl.c ****     LobotTxBuf[0] = FRAME_HEADER; // å¡«å……å¸§å¤´
 710              		.loc 1 257 5 view .LVU212
 711              		.loc 1 257 19 is_stmt 0 view .LVU213
 712 0002 084B     		ldr	r3, .L48
 713 0004 5522     		movs	r2, #85
 714 0006 1A70     		strb	r2, [r3]
ARM GAS  C:\Users\blue\AppData\Local\Temp\ccg1XBVw.s 			page 18


 258:modules/motor/servo_ctrl/servo_ctrl.c ****     LobotTxBuf[1] = FRAME_HEADER;
 715              		.loc 1 258 5 is_stmt 1 view .LVU214
 716              		.loc 1 258 19 is_stmt 0 view .LVU215
 717 0008 5A70     		strb	r2, [r3, #1]
 259:modules/motor/servo_ctrl/servo_ctrl.c ****     LobotTxBuf[2] = 2;                       // æ•°æ®é•¿åº¦ï¼Œæ•°æ®å¸§é™¤å¸§å¤´éƒ¨åˆ†æ•°æ®å­—èŠ‚
 718              		.loc 1 259 5 is_stmt 1 view .LVU216
 719              		.loc 1 259 19 is_stmt 0 view .LVU217
 720 000a 0222     		movs	r2, #2
 721 000c 9A70     		strb	r2, [r3, #2]
 260:modules/motor/servo_ctrl/servo_ctrl.c ****     LobotTxBuf[3] = CMD_GET_BATTERY_VOLTAGE; // å¡«å……è·å–ç”µæ± ç”µå‹å‘½ä»¤
 722              		.loc 1 260 5 is_stmt 1 view .LVU218
 723              		.loc 1 260 19 is_stmt 0 view .LVU219
 724 000e 0F22     		movs	r2, #15
 725 0010 DA70     		strb	r2, [r3, #3]
 261:modules/motor/servo_ctrl/servo_ctrl.c **** 
 262:modules/motor/servo_ctrl/servo_ctrl.c ****     if (lobotUsartInstance != NULL)
 726              		.loc 1 262 5 is_stmt 1 view .LVU220
 727              		.loc 1 262 28 is_stmt 0 view .LVU221
 728 0012 054B     		ldr	r3, .L48+4
 729 0014 1868     		ldr	r0, [r3]
 730              		.loc 1 262 8 view .LVU222
 731 0016 20B1     		cbz	r0, .L45
 263:modules/motor/servo_ctrl/servo_ctrl.c ****     {
 264:modules/motor/servo_ctrl/servo_ctrl.c ****         USARTSend(lobotUsartInstance, LobotTxBuf, 4, USART_TRANSFER_BLOCKING); // å‘é€
 732              		.loc 1 264 9 is_stmt 1 view .LVU223
 733 0018 0123     		movs	r3, #1
 734 001a 0422     		movs	r2, #4
 735 001c 0149     		ldr	r1, .L48
 736 001e FFF7FEFF 		bl	USARTSend
 737              	.LVL44:
 738              	.L45:
 265:modules/motor/servo_ctrl/servo_ctrl.c ****     }
 266:modules/motor/servo_ctrl/servo_ctrl.c **** }
 739              		.loc 1 266 1 is_stmt 0 view .LVU224
 740 0022 08BD     		pop	{r3, pc}
 741              	.L49:
 742              		.align	2
 743              	.L48:
 744 0024 00000000 		.word	.LANCHOR0
 745 0028 00000000 		.word	.LANCHOR1
 746              		.cfi_endproc
 747              	.LFE151:
 749              		.section	.text.ServoCtrl_Init,"ax",%progbits
 750              		.align	1
 751              		.global	ServoCtrl_Init
 752              		.syntax unified
 753              		.thumb
 754              		.thumb_func
 756              	ServoCtrl_Init:
 757              	.LVL45:
 758              	.LFB152:
 267:modules/motor/servo_ctrl/servo_ctrl.c **** 
 268:modules/motor/servo_ctrl/servo_ctrl.c **** /**
 269:modules/motor/servo_ctrl/servo_ctrl.c ****  * @brief èˆµæœºæ§åˆ¶æ¿åˆå§‹åŒ–å‡½æ•°
 270:modules/motor/servo_ctrl/servo_ctrl.c ****  */
 271:modules/motor/servo_ctrl/servo_ctrl.c **** void ServoCtrl_Init(USART_TypeDef *usart_handle)
 272:modules/motor/servo_ctrl/servo_ctrl.c **** {
ARM GAS  C:\Users\blue\AppData\Local\Temp\ccg1XBVw.s 			page 19


 759              		.loc 1 272 1 is_stmt 1 view -0
 760              		.cfi_startproc
 761              		@ args = 0, pretend = 0, frame = 16
 762              		@ frame_needed = 0, uses_anonymous_args = 0
 763              		.loc 1 272 1 is_stmt 0 view .LVU226
 764 0000 00B5     		push	{lr}
 765              	.LCFI15:
 766              		.cfi_def_cfa_offset 4
 767              		.cfi_offset 14, -4
 768 0002 85B0     		sub	sp, sp, #20
 769              	.LCFI16:
 770              		.cfi_def_cfa_offset 24
 273:modules/motor/servo_ctrl/servo_ctrl.c ****     USART_Init_Config_s conf;
 771              		.loc 1 273 5 is_stmt 1 view .LVU227
 274:modules/motor/servo_ctrl/servo_ctrl.c ****     conf.module_callback = NULL;
 772              		.loc 1 274 5 view .LVU228
 773              		.loc 1 274 26 is_stmt 0 view .LVU229
 774 0004 0023     		movs	r3, #0
 775 0006 0393     		str	r3, [sp, #12]
 275:modules/motor/servo_ctrl/servo_ctrl.c ****     conf.recv_buff_size = NULL;
 776              		.loc 1 275 5 is_stmt 1 view .LVU230
 777              		.loc 1 275 25 is_stmt 0 view .LVU231
 778 0008 8DF80430 		strb	r3, [sp, #4]
 276:modules/motor/servo_ctrl/servo_ctrl.c ****     conf.usart_handle = usart_handle;
 779              		.loc 1 276 5 is_stmt 1 view .LVU232
 780              		.loc 1 276 23 is_stmt 0 view .LVU233
 781 000c 0290     		str	r0, [sp, #8]
 277:modules/motor/servo_ctrl/servo_ctrl.c ****     lobotUsartInstance = USARTRegister(&conf);
 782              		.loc 1 277 5 is_stmt 1 view .LVU234
 783              		.loc 1 277 26 is_stmt 0 view .LVU235
 784 000e 01A8     		add	r0, sp, #4
 785              	.LVL46:
 786              		.loc 1 277 26 view .LVU236
 787 0010 FFF7FEFF 		bl	USARTRegister
 788              	.LVL47:
 789              		.loc 1 277 24 view .LVU237
 790 0014 024B     		ldr	r3, .L52
 791 0016 1860     		str	r0, [r3]
 278:modules/motor/servo_ctrl/servo_ctrl.c ****     return;
 792              		.loc 1 278 5 is_stmt 1 view .LVU238
 279:modules/motor/servo_ctrl/servo_ctrl.c **** }
 793              		.loc 1 279 1 is_stmt 0 view .LVU239
 794 0018 05B0     		add	sp, sp, #20
 795              	.LCFI17:
 796              		.cfi_def_cfa_offset 4
 797              		@ sp needed
 798 001a 5DF804FB 		ldr	pc, [sp], #4
 799              	.L53:
 800 001e 00BF     		.align	2
 801              	.L52:
 802 0020 00000000 		.word	.LANCHOR1
 803              		.cfi_endproc
 804              	.LFE152:
 806              		.global	batteryVolt
 807              		.section	.bss.LobotTxBuf,"aw",%nobits
 808              		.align	2
 809              		.set	.LANCHOR0,. + 0
ARM GAS  C:\Users\blue\AppData\Local\Temp\ccg1XBVw.s 			page 20


 812              	LobotTxBuf:
 813 0000 00000000 		.space	128
 813      00000000 
 813      00000000 
 813      00000000 
 813      00000000 
 814              		.section	.bss.batteryVolt,"aw",%nobits
 815              		.align	1
 818              	batteryVolt:
 819 0000 0000     		.space	2
 820              		.section	.bss.lobotUsartInstance,"aw",%nobits
 821              		.align	2
 822              		.set	.LANCHOR1,. + 0
 825              	lobotUsartInstance:
 826 0000 00000000 		.space	4
 827              		.text
 828              	.Letext0:
 829              		.file 2 "d:\\rm\\arm-gnu-toolchian\\arm-none-eabi\\include\\machine\\_default_types.h"
 830              		.file 3 "d:\\rm\\arm-gnu-toolchian\\arm-none-eabi\\include\\sys\\_stdint.h"
 831              		.file 4 "Drivers/CMSIS/Device/ST/STM32H7xx/Include/stm32h743xx.h"
 832              		.file 5 "d:\\rm\\arm-gnu-toolchian\\lib\\gcc\\arm-none-eabi\\10.3.1\\include\\stddef.h"
 833              		.file 6 "Drivers/STM32H7xx_HAL_Driver/Inc/stm32h7xx_hal_def.h"
 834              		.file 7 "Drivers/STM32H7xx_HAL_Driver/Inc/stm32h7xx_hal_dma.h"
 835              		.file 8 "Drivers/STM32H7xx_HAL_Driver/Inc/stm32h7xx_hal_uart.h"
 836              		.file 9 "modules/motor/servo_ctrl/servo_ctrl.h"
 837              		.file 10 "bsp/usart/bsp_usart.h"
 838              		.file 11 "d:\\rm\\arm-gnu-toolchian\\lib\\gcc\\arm-none-eabi\\10.3.1\\include\\stdarg.h"
 839              		.file 12 "<built-in>"
ARM GAS  C:\Users\blue\AppData\Local\Temp\ccg1XBVw.s 			page 21

